	.build_version macos, 15, 0	sdk_version 15, 5
	.section	__TEXT,__StaticInit,regular,pure_instructions
	.p2align	2                               ; -- Begin function __cxx_global_var_init
___cxx_global_var_init:                 ; @__cxx_global_var_init
	.cfi_startproc
; %bb.0:
	stp	x29, x30, [sp, #-16]!           ; 16-byte Folded Spill
	mov	x29, sp
	.cfi_def_cfa w29, 16
	.cfi_offset w30, -8
	.cfi_offset w29, -16
	adrp	x0, __ZN7sc_coreL17api_version_checkE@PAGE
	add	x0, x0, __ZN7sc_coreL17api_version_checkE@PAGEOFF
	mov	w8, #0                          ; =0x0
	mov	x1, x8
	and	w2, w8, #0x1
	bl	__ZN7sc_core31sc_api_version_3_0_1_cxx201703LC1ENS_16sc_writer_policyEb
	ldp	x29, x30, [sp], #16             ; 16-byte Folded Reload
	ret
	.cfi_endproc
                                        ; -- End function
	.section	__TEXT,__text,regular,pure_instructions
	.globl	_sc_main                        ; -- Begin function sc_main
	.p2align	2
_sc_main:                               ; @sc_main
Lfunc_begin0:
	.cfi_startproc
	.cfi_personality 155, ___gxx_personality_v0
	.cfi_lsda 16, Lexception0
; %bb.0:
	stp	x28, x27, [sp, #-32]!           ; 16-byte Folded Spill
	stp	x29, x30, [sp, #16]             ; 16-byte Folded Spill
	add	x29, sp, #16
	sub	sp, sp, #1552
	.cfi_def_cfa w29, 16
	.cfi_offset w30, -8
	.cfi_offset w29, -16
	.cfi_offset w27, -24
	.cfi_offset w28, -32
	sub	x8, x29, #32
	add	x9, sp, #836
	str	x9, [sp]                        ; 8-byte Folded Spill
	str	w0, [x8, #12]
	str	x1, [x8]
	add	x0, sp, #1008
	adrp	x1, l_.str@PAGE
	add	x1, x1, l_.str@PAGEOFF
	fmov	d0, #10.00000000
	mov	w2, #2                          ; =0x2
	fmov	d1, #0.50000000
	bl	__ZN7sc_core8sc_clockC1EPKcdNS_12sc_time_unitEd
Ltmp0:
	add	x0, sp, #848
	bl	__ZN7sc_core9sc_signalIbLNS_16sc_writer_policyE0EEC1Ev
Ltmp1:
	b	LBB1_1
LBB1_1:
Ltmp3:
	add	x0, sp, #696
	bl	__ZN7sc_core9sc_signalIiLNS_16sc_writer_policyE0EEC1Ev
Ltmp4:
	b	LBB1_2
LBB1_2:
Ltmp6:
	add	x0, sp, #16
	adrp	x1, l_.str.1@PAGE
	add	x1, x1, l_.str.1@PAGEOFF
	bl	__ZN7sc_core14sc_module_nameC1EPKc
Ltmp7:
	b	LBB1_3
LBB1_3:
Ltmp8:
	add	x0, sp, #80
	add	x1, sp, #16
	bl	__ZN14simple_counterC1EN7sc_core14sc_module_nameE
Ltmp9:
	b	LBB1_4
LBB1_4:
Ltmp14:
	add	x0, sp, #16
	bl	__ZN7sc_core14sc_module_nameD1Ev
Ltmp15:
	b	LBB1_5
LBB1_5:
	add	x8, sp, #80
	add	x0, x8, #232
Ltmp17:
	add	x1, sp, #1008
	bl	__ZN7sc_core5sc_inIbEclERKNS_15sc_signal_in_ifIbEE
Ltmp18:
	b	LBB1_6
LBB1_6:
	add	x8, sp, #80
	add	x0, x8, #360
Ltmp19:
	add	x1, sp, #848
	bl	__ZN7sc_core5sc_inIbEclERKNS_15sc_signal_in_ifIbEE
Ltmp20:
	b	LBB1_7
LBB1_7:
	add	x8, sp, #80
	add	x0, x8, #488
Ltmp21:
	add	x1, sp, #696
	bl	__ZN7sc_core9sc_port_bINS_18sc_signal_inout_ifIiEEEclERS2_
Ltmp22:
	b	LBB1_8
LBB1_8:
	add	x1, sp, #15
	mov	w8, #1                          ; =0x1
	strb	w8, [sp, #15]
Ltmp23:
	add	x0, sp, #848
	bl	__ZN7sc_core11sc_signal_tIbLNS_16sc_writer_policyE0EE5writeERKb
Ltmp24:
	b	LBB1_9
LBB1_9:
Ltmp25:
	mov	w0, #20                         ; =0x14
	mov	w1, #2                          ; =0x2
	mov	w2, #1                          ; =0x1
	bl	__ZN7sc_core8sc_startEiNS_12sc_time_unitENS_20sc_starvation_policyE
Ltmp26:
	b	LBB1_10
LBB1_10:
	add	x1, sp, #14
	strb	wzr, [sp, #14]
Ltmp27:
	add	x0, sp, #848
	bl	__ZN7sc_core11sc_signal_tIbLNS_16sc_writer_policyE0EE5writeERKb
Ltmp28:
	b	LBB1_11
LBB1_11:
Ltmp29:
	mov	w0, #100                        ; =0x64
	mov	w1, #2                          ; =0x2
	mov	w2, #1                          ; =0x1
	bl	__ZN7sc_core8sc_startEiNS_12sc_time_unitENS_20sc_starvation_policyE
Ltmp30:
	b	LBB1_12
LBB1_12:
	add	x0, sp, #80
	bl	__ZN14simple_counterD1Ev
	add	x0, sp, #696
	bl	__ZN7sc_core9sc_signalIiLNS_16sc_writer_policyE0EED1Ev
	add	x0, sp, #848
	bl	__ZN7sc_core9sc_signalIbLNS_16sc_writer_policyE0EED1Ev
	add	x0, sp, #1008
	bl	__ZN7sc_core8sc_clockD1Ev
	mov	w0, #0                          ; =0x0
	add	sp, sp, #1552
	ldp	x29, x30, [sp, #16]             ; 16-byte Folded Reload
	ldp	x28, x27, [sp], #32             ; 16-byte Folded Reload
	ret
LBB1_13:
Ltmp2:
	ldr	x9, [sp]                        ; 8-byte Folded Reload
	stur	x0, [x9, #4]
	mov	x8, x1
	str	w8, [x9]
	b	LBB1_21
LBB1_14:
Ltmp5:
	ldr	x9, [sp]                        ; 8-byte Folded Reload
	stur	x0, [x9, #4]
	mov	x8, x1
	str	w8, [x9]
	b	LBB1_20
LBB1_15:
Ltmp16:
	ldr	x9, [sp]                        ; 8-byte Folded Reload
	stur	x0, [x9, #4]
	mov	x8, x1
	str	w8, [x9]
	b	LBB1_19
LBB1_16:
Ltmp10:
	ldr	x9, [sp]                        ; 8-byte Folded Reload
	stur	x0, [x9, #4]
	mov	x8, x1
	str	w8, [x9]
Ltmp11:
	add	x0, sp, #16
	bl	__ZN7sc_core14sc_module_nameD1Ev
Ltmp12:
	b	LBB1_17
LBB1_17:
	b	LBB1_19
LBB1_18:
Ltmp31:
	ldr	x9, [sp]                        ; 8-byte Folded Reload
	stur	x0, [x9, #4]
	mov	x8, x1
	str	w8, [x9]
	add	x0, sp, #80
	bl	__ZN14simple_counterD1Ev
	b	LBB1_19
LBB1_19:
	add	x0, sp, #696
	bl	__ZN7sc_core9sc_signalIiLNS_16sc_writer_policyE0EED1Ev
	b	LBB1_20
LBB1_20:
	add	x0, sp, #848
	bl	__ZN7sc_core9sc_signalIbLNS_16sc_writer_policyE0EED1Ev
	b	LBB1_21
LBB1_21:
	add	x0, sp, #1008
	bl	__ZN7sc_core8sc_clockD1Ev
	b	LBB1_22
LBB1_22:
	ldr	x8, [sp]                        ; 8-byte Folded Reload
	ldur	x0, [x8, #4]
	bl	__Unwind_Resume
LBB1_23:
Ltmp13:
	bl	___clang_call_terminate
Lfunc_end0:
	.cfi_endproc
	.section	__TEXT,__gcc_except_tab
	.p2align	2, 0x0
GCC_except_table1:
Lexception0:
	.byte	255                             ; @LPStart Encoding = omit
	.byte	155                             ; @TType Encoding = indirect pcrel sdata4
	.uleb128 Lttbase0-Lttbaseref0
Lttbaseref0:
	.byte	1                               ; Call site Encoding = uleb128
	.uleb128 Lcst_end0-Lcst_begin0
Lcst_begin0:
	.uleb128 Lfunc_begin0-Lfunc_begin0      ; >> Call Site 1 <<
	.uleb128 Ltmp0-Lfunc_begin0             ;   Call between Lfunc_begin0 and Ltmp0
	.byte	0                               ;     has no landing pad
	.byte	0                               ;   On action: cleanup
	.uleb128 Ltmp0-Lfunc_begin0             ; >> Call Site 2 <<
	.uleb128 Ltmp1-Ltmp0                    ;   Call between Ltmp0 and Ltmp1
	.uleb128 Ltmp2-Lfunc_begin0             ;     jumps to Ltmp2
	.byte	0                               ;   On action: cleanup
	.uleb128 Ltmp3-Lfunc_begin0             ; >> Call Site 3 <<
	.uleb128 Ltmp4-Ltmp3                    ;   Call between Ltmp3 and Ltmp4
	.uleb128 Ltmp5-Lfunc_begin0             ;     jumps to Ltmp5
	.byte	0                               ;   On action: cleanup
	.uleb128 Ltmp6-Lfunc_begin0             ; >> Call Site 4 <<
	.uleb128 Ltmp7-Ltmp6                    ;   Call between Ltmp6 and Ltmp7
	.uleb128 Ltmp16-Lfunc_begin0            ;     jumps to Ltmp16
	.byte	0                               ;   On action: cleanup
	.uleb128 Ltmp8-Lfunc_begin0             ; >> Call Site 5 <<
	.uleb128 Ltmp9-Ltmp8                    ;   Call between Ltmp8 and Ltmp9
	.uleb128 Ltmp10-Lfunc_begin0            ;     jumps to Ltmp10
	.byte	0                               ;   On action: cleanup
	.uleb128 Ltmp14-Lfunc_begin0            ; >> Call Site 6 <<
	.uleb128 Ltmp15-Ltmp14                  ;   Call between Ltmp14 and Ltmp15
	.uleb128 Ltmp16-Lfunc_begin0            ;     jumps to Ltmp16
	.byte	0                               ;   On action: cleanup
	.uleb128 Ltmp17-Lfunc_begin0            ; >> Call Site 7 <<
	.uleb128 Ltmp30-Ltmp17                  ;   Call between Ltmp17 and Ltmp30
	.uleb128 Ltmp31-Lfunc_begin0            ;     jumps to Ltmp31
	.byte	0                               ;   On action: cleanup
	.uleb128 Ltmp11-Lfunc_begin0            ; >> Call Site 8 <<
	.uleb128 Ltmp12-Ltmp11                  ;   Call between Ltmp11 and Ltmp12
	.uleb128 Ltmp13-Lfunc_begin0            ;     jumps to Ltmp13
	.byte	1                               ;   On action: 1
	.uleb128 Ltmp12-Lfunc_begin0            ; >> Call Site 9 <<
	.uleb128 Lfunc_end0-Ltmp12              ;   Call between Ltmp12 and Lfunc_end0
	.byte	0                               ;     has no landing pad
	.byte	0                               ;   On action: cleanup
Lcst_end0:
	.byte	1                               ; >> Action Record 1 <<
                                        ;   Catch TypeInfo 1
	.byte	0                               ;   No further actions
	.p2align	2, 0x0
                                        ; >> Catch TypeInfos <<
	.long	0                               ; TypeInfo 1
Lttbase0:
	.p2align	2, 0x0
                                        ; -- End function
	.section	__TEXT,__text,regular,pure_instructions
	.globl	__ZN7sc_core9sc_signalIbLNS_16sc_writer_policyE0EEC1Ev ; -- Begin function _ZN7sc_core9sc_signalIbLNS_16sc_writer_policyE0EEC1Ev
	.weak_def_can_be_hidden	__ZN7sc_core9sc_signalIbLNS_16sc_writer_policyE0EEC1Ev
	.p2align	2
__ZN7sc_core9sc_signalIbLNS_16sc_writer_policyE0EEC1Ev: ; @_ZN7sc_core9sc_signalIbLNS_16sc_writer_policyE0EEC1Ev
Lfunc_begin1:
	.cfi_startproc
	.cfi_personality 155, ___gxx_personality_v0
	.cfi_lsda 16, Lexception1
; %bb.0:
	sub	sp, sp, #64
	stp	x29, x30, [sp, #48]             ; 16-byte Folded Spill
	add	x29, sp, #48
	.cfi_def_cfa w29, 16
	.cfi_offset w30, -8
	.cfi_offset w29, -16
	stur	x0, [x29, #-8]
	ldur	x0, [x29, #-8]
	str	x0, [sp, #8]                    ; 8-byte Folded Spill
	bl	__ZN7sc_core12sc_interfaceC2Ev
Ltmp32:
	adrp	x0, l_.str.17@PAGE
	add	x0, x0, l_.str.17@PAGEOFF
	mov	w8, #0                          ; =0x0
	and	w1, w8, #0x1
	bl	__ZN7sc_core18sc_gen_unique_nameEPKcb
	str	x0, [sp, #16]                   ; 8-byte Folded Spill
Ltmp33:
	b	LBB2_1
LBB2_1:
	ldr	x2, [sp, #16]                   ; 8-byte Folded Reload
	ldr	x0, [sp, #8]                    ; 8-byte Folded Reload
	sub	x3, x29, #21
	sturb	wzr, [x29, #-21]
Ltmp34:
	adrp	x8, __ZTTN7sc_core9sc_signalIbLNS_16sc_writer_policyE0EEE@GOTPAGE
	ldr	x8, [x8, __ZTTN7sc_core9sc_signalIbLNS_16sc_writer_policyE0EEE@GOTPAGEOFF]
	add	x1, x8, #8
	bl	__ZN7sc_core11sc_signal_tIbLNS_16sc_writer_policyE0EEC2EPKcRKb
Ltmp35:
	b	LBB2_2
LBB2_2:
	ldr	x0, [sp, #8]                    ; 8-byte Folded Reload
	adrp	x8, __ZTVN7sc_core9sc_signalIbLNS_16sc_writer_policyE0EEE@GOTPAGE
	ldr	x8, [x8, __ZTVN7sc_core9sc_signalIbLNS_16sc_writer_policyE0EEE@GOTPAGEOFF]
	add	x9, x8, #48
	mov	x10, x9
	str	x10, [x0]
	str	x9, [x0]
	add	x9, x8, #264
	str	x9, [x0, #8]
	add	x8, x8, #328
	str	x8, [x0, #16]
                                        ; kill: def $x8 killed $xzr
	str	xzr, [x0, #136]
	str	xzr, [x0, #144]
	str	xzr, [x0, #152]
	ldp	x29, x30, [sp, #48]             ; 16-byte Folded Reload
	add	sp, sp, #64
	ret
LBB2_3:
Ltmp36:
	mov	x8, x0
	ldr	x0, [sp, #8]                    ; 8-byte Folded Reload
	stur	x8, [x29, #-16]
	mov	x8, x1
	stur	w8, [x29, #-20]
	bl	__ZN7sc_core12sc_interfaceD2Ev
	b	LBB2_4
LBB2_4:
	ldur	x0, [x29, #-16]
	bl	__Unwind_Resume
Lfunc_end1:
	.cfi_endproc
	.section	__TEXT,__gcc_except_tab
	.p2align	2, 0x0
GCC_except_table2:
Lexception1:
	.byte	255                             ; @LPStart Encoding = omit
	.byte	255                             ; @TType Encoding = omit
	.byte	1                               ; Call site Encoding = uleb128
	.uleb128 Lcst_end1-Lcst_begin1
Lcst_begin1:
	.uleb128 Lfunc_begin1-Lfunc_begin1      ; >> Call Site 1 <<
	.uleb128 Ltmp32-Lfunc_begin1            ;   Call between Lfunc_begin1 and Ltmp32
	.byte	0                               ;     has no landing pad
	.byte	0                               ;   On action: cleanup
	.uleb128 Ltmp32-Lfunc_begin1            ; >> Call Site 2 <<
	.uleb128 Ltmp35-Ltmp32                  ;   Call between Ltmp32 and Ltmp35
	.uleb128 Ltmp36-Lfunc_begin1            ;     jumps to Ltmp36
	.byte	0                               ;   On action: cleanup
	.uleb128 Ltmp35-Lfunc_begin1            ; >> Call Site 3 <<
	.uleb128 Lfunc_end1-Ltmp35              ;   Call between Ltmp35 and Lfunc_end1
	.byte	0                               ;     has no landing pad
	.byte	0                               ;   On action: cleanup
Lcst_end1:
	.p2align	2, 0x0
                                        ; -- End function
	.section	__TEXT,__text,regular,pure_instructions
	.globl	__ZN7sc_core9sc_signalIiLNS_16sc_writer_policyE0EEC1Ev ; -- Begin function _ZN7sc_core9sc_signalIiLNS_16sc_writer_policyE0EEC1Ev
	.weak_def_can_be_hidden	__ZN7sc_core9sc_signalIiLNS_16sc_writer_policyE0EEC1Ev
	.p2align	2
__ZN7sc_core9sc_signalIiLNS_16sc_writer_policyE0EEC1Ev: ; @_ZN7sc_core9sc_signalIiLNS_16sc_writer_policyE0EEC1Ev
Lfunc_begin2:
	.cfi_startproc
	.cfi_personality 155, ___gxx_personality_v0
	.cfi_lsda 16, Lexception2
; %bb.0:
	sub	sp, sp, #64
	stp	x29, x30, [sp, #48]             ; 16-byte Folded Spill
	add	x29, sp, #48
	.cfi_def_cfa w29, 16
	.cfi_offset w30, -8
	.cfi_offset w29, -16
	stur	x0, [x29, #-8]
	ldur	x0, [x29, #-8]
	str	x0, [sp, #8]                    ; 8-byte Folded Spill
	bl	__ZN7sc_core12sc_interfaceC2Ev
Ltmp37:
	adrp	x0, l_.str.17@PAGE
	add	x0, x0, l_.str.17@PAGEOFF
	mov	w8, #0                          ; =0x0
	and	w1, w8, #0x1
	bl	__ZN7sc_core18sc_gen_unique_nameEPKcb
	str	x0, [sp, #16]                   ; 8-byte Folded Spill
Ltmp38:
	b	LBB3_1
LBB3_1:
	ldr	x2, [sp, #16]                   ; 8-byte Folded Reload
	ldr	x0, [sp, #8]                    ; 8-byte Folded Reload
	add	x3, sp, #24
	str	wzr, [sp, #24]
Ltmp39:
	adrp	x8, __ZTTN7sc_core9sc_signalIiLNS_16sc_writer_policyE0EEE@GOTPAGE
	ldr	x8, [x8, __ZTTN7sc_core9sc_signalIiLNS_16sc_writer_policyE0EEE@GOTPAGEOFF]
	add	x1, x8, #8
	bl	__ZN7sc_core11sc_signal_tIiLNS_16sc_writer_policyE0EEC2EPKcRKi
Ltmp40:
	b	LBB3_2
LBB3_2:
	ldr	x0, [sp, #8]                    ; 8-byte Folded Reload
	adrp	x8, __ZTVN7sc_core9sc_signalIiLNS_16sc_writer_policyE0EEE@GOTPAGE
	ldr	x8, [x8, __ZTVN7sc_core9sc_signalIiLNS_16sc_writer_policyE0EEE@GOTPAGEOFF]
	add	x9, x8, #48
	mov	x10, x9
	str	x10, [x0]
	str	x9, [x0]
	add	x9, x8, #216
	str	x9, [x0, #8]
	add	x8, x8, #280
	str	x8, [x0, #16]
	ldp	x29, x30, [sp, #48]             ; 16-byte Folded Reload
	add	sp, sp, #64
	ret
LBB3_3:
Ltmp41:
	mov	x8, x0
	ldr	x0, [sp, #8]                    ; 8-byte Folded Reload
	stur	x8, [x29, #-16]
	mov	x8, x1
	stur	w8, [x29, #-20]
	bl	__ZN7sc_core12sc_interfaceD2Ev
	b	LBB3_4
LBB3_4:
	ldur	x0, [x29, #-16]
	bl	__Unwind_Resume
Lfunc_end2:
	.cfi_endproc
	.section	__TEXT,__gcc_except_tab
	.p2align	2, 0x0
GCC_except_table3:
Lexception2:
	.byte	255                             ; @LPStart Encoding = omit
	.byte	255                             ; @TType Encoding = omit
	.byte	1                               ; Call site Encoding = uleb128
	.uleb128 Lcst_end2-Lcst_begin2
Lcst_begin2:
	.uleb128 Lfunc_begin2-Lfunc_begin2      ; >> Call Site 1 <<
	.uleb128 Ltmp37-Lfunc_begin2            ;   Call between Lfunc_begin2 and Ltmp37
	.byte	0                               ;     has no landing pad
	.byte	0                               ;   On action: cleanup
	.uleb128 Ltmp37-Lfunc_begin2            ; >> Call Site 2 <<
	.uleb128 Ltmp40-Ltmp37                  ;   Call between Ltmp37 and Ltmp40
	.uleb128 Ltmp41-Lfunc_begin2            ;     jumps to Ltmp41
	.byte	0                               ;   On action: cleanup
	.uleb128 Ltmp40-Lfunc_begin2            ; >> Call Site 3 <<
	.uleb128 Lfunc_end2-Ltmp40              ;   Call between Ltmp40 and Lfunc_end2
	.byte	0                               ;     has no landing pad
	.byte	0                               ;   On action: cleanup
Lcst_end2:
	.p2align	2, 0x0
                                        ; -- End function
	.section	__TEXT,__text,regular,pure_instructions
	.globl	__ZN14simple_counterC1EN7sc_core14sc_module_nameE ; -- Begin function _ZN14simple_counterC1EN7sc_core14sc_module_nameE
	.weak_def_can_be_hidden	__ZN14simple_counterC1EN7sc_core14sc_module_nameE
	.p2align	2
__ZN14simple_counterC1EN7sc_core14sc_module_nameE: ; @_ZN14simple_counterC1EN7sc_core14sc_module_nameE
	.cfi_startproc
; %bb.0:
	sub	sp, sp, #48
	stp	x29, x30, [sp, #32]             ; 16-byte Folded Spill
	add	x29, sp, #32
	.cfi_def_cfa w29, 16
	.cfi_offset w30, -8
	.cfi_offset w29, -16
	stur	x0, [x29, #-8]
	mov	x8, x1
	str	x8, [sp, #16]
	ldur	x0, [x29, #-8]
	str	x0, [sp, #8]                    ; 8-byte Folded Spill
	bl	__ZN14simple_counterC2EN7sc_core14sc_module_nameE
	ldr	x0, [sp, #8]                    ; 8-byte Folded Reload
	ldp	x29, x30, [sp, #32]             ; 16-byte Folded Reload
	add	sp, sp, #48
	ret
	.cfi_endproc
                                        ; -- End function
	.private_extern	___clang_call_terminate ; -- Begin function __clang_call_terminate
	.globl	___clang_call_terminate
	.weak_definition	___clang_call_terminate
	.p2align	2
___clang_call_terminate:                ; @__clang_call_terminate
	.cfi_startproc
; %bb.0:
	stp	x29, x30, [sp, #-16]!           ; 16-byte Folded Spill
	mov	x29, sp
	.cfi_def_cfa w29, 16
	.cfi_offset w30, -8
	.cfi_offset w29, -16
	bl	___cxa_begin_catch
	bl	__ZSt9terminatev
	.cfi_endproc
                                        ; -- End function
	.globl	__ZN7sc_core5sc_inIbEclERKNS_15sc_signal_in_ifIbEE ; -- Begin function _ZN7sc_core5sc_inIbEclERKNS_15sc_signal_in_ifIbEE
	.weak_definition	__ZN7sc_core5sc_inIbEclERKNS_15sc_signal_in_ifIbEE
	.p2align	2
__ZN7sc_core5sc_inIbEclERKNS_15sc_signal_in_ifIbEE: ; @_ZN7sc_core5sc_inIbEclERKNS_15sc_signal_in_ifIbEE
	.cfi_startproc
; %bb.0:
	sub	sp, sp, #32
	stp	x29, x30, [sp, #16]             ; 16-byte Folded Spill
	add	x29, sp, #16
	.cfi_def_cfa w29, 16
	.cfi_offset w30, -8
	.cfi_offset w29, -16
	str	x0, [sp, #8]
	str	x1, [sp]
	ldr	x0, [sp, #8]
	ldr	x1, [sp]
	ldr	x8, [x0]
	ldr	x8, [x8, #192]
	blr	x8
	ldp	x29, x30, [sp, #16]             ; 16-byte Folded Reload
	add	sp, sp, #32
	ret
	.cfi_endproc
                                        ; -- End function
	.globl	__ZN7sc_core9sc_port_bINS_18sc_signal_inout_ifIiEEEclERS2_ ; -- Begin function _ZN7sc_core9sc_port_bINS_18sc_signal_inout_ifIiEEEclERS2_
	.weak_definition	__ZN7sc_core9sc_port_bINS_18sc_signal_inout_ifIiEEEclERS2_
	.p2align	2
__ZN7sc_core9sc_port_bINS_18sc_signal_inout_ifIiEEEclERS2_: ; @_ZN7sc_core9sc_port_bINS_18sc_signal_inout_ifIiEEEclERS2_
	.cfi_startproc
; %bb.0:
	sub	sp, sp, #32
	stp	x29, x30, [sp, #16]             ; 16-byte Folded Spill
	add	x29, sp, #16
	.cfi_def_cfa w29, 16
	.cfi_offset w30, -8
	.cfi_offset w29, -16
	str	x0, [sp, #8]
	str	x1, [sp]
	ldr	x0, [sp, #8]
	ldr	x1, [sp]
	ldr	x8, [x0]
	ldr	x8, [x8, #176]
	blr	x8
	ldp	x29, x30, [sp, #16]             ; 16-byte Folded Reload
	add	sp, sp, #32
	ret
	.cfi_endproc
                                        ; -- End function
	.globl	__ZN7sc_core8sc_startEiNS_12sc_time_unitENS_20sc_starvation_policyE ; -- Begin function _ZN7sc_core8sc_startEiNS_12sc_time_unitENS_20sc_starvation_policyE
	.weak_definition	__ZN7sc_core8sc_startEiNS_12sc_time_unitENS_20sc_starvation_policyE
	.p2align	2
__ZN7sc_core8sc_startEiNS_12sc_time_unitENS_20sc_starvation_policyE: ; @_ZN7sc_core8sc_startEiNS_12sc_time_unitENS_20sc_starvation_policyE
	.cfi_startproc
; %bb.0:
	sub	sp, sp, #48
	stp	x29, x30, [sp, #32]             ; 16-byte Folded Spill
	add	x29, sp, #32
	.cfi_def_cfa w29, 16
	.cfi_offset w30, -8
	.cfi_offset w29, -16
	stur	w0, [x29, #-4]
	stur	w1, [x29, #-8]
	stur	w2, [x29, #-12]
	ldur	s1, [x29, #-4]
                                        ; implicit-def: $d0
	fmov	s0, s1
	sshll.2d	v0, v0, #0
                                        ; kill: def $d0 killed $d0 killed $q0
	scvtf	d0, d0
	ldur	w1, [x29, #-8]
	add	x0, sp, #8
	str	x0, [sp]                        ; 8-byte Folded Spill
	bl	__ZN7sc_core7sc_timeC1EdNS_12sc_time_unitE
	ldr	x0, [sp]                        ; 8-byte Folded Reload
	ldur	w1, [x29, #-12]
	bl	__ZN7sc_core8sc_startERKNS_7sc_timeENS_20sc_starvation_policyE
	ldp	x29, x30, [sp, #32]             ; 16-byte Folded Reload
	add	sp, sp, #48
	ret
	.cfi_endproc
                                        ; -- End function
	.globl	__ZN14simple_counterD1Ev        ; -- Begin function _ZN14simple_counterD1Ev
	.weak_def_can_be_hidden	__ZN14simple_counterD1Ev
	.p2align	2
__ZN14simple_counterD1Ev:               ; @_ZN14simple_counterD1Ev
	.cfi_startproc
; %bb.0:
	sub	sp, sp, #32
	stp	x29, x30, [sp, #16]             ; 16-byte Folded Spill
	add	x29, sp, #16
	.cfi_def_cfa w29, 16
	.cfi_offset w30, -8
	.cfi_offset w29, -16
	str	x0, [sp, #8]
	ldr	x0, [sp, #8]
	str	x0, [sp]                        ; 8-byte Folded Spill
	bl	__ZN14simple_counterD2Ev
	ldr	x0, [sp]                        ; 8-byte Folded Reload
	ldp	x29, x30, [sp, #16]             ; 16-byte Folded Reload
	add	sp, sp, #32
	ret
	.cfi_endproc
                                        ; -- End function
	.globl	__ZN7sc_core9sc_signalIiLNS_16sc_writer_policyE0EED1Ev ; -- Begin function _ZN7sc_core9sc_signalIiLNS_16sc_writer_policyE0EED1Ev
	.weak_def_can_be_hidden	__ZN7sc_core9sc_signalIiLNS_16sc_writer_policyE0EED1Ev
	.p2align	2
__ZN7sc_core9sc_signalIiLNS_16sc_writer_policyE0EED1Ev: ; @_ZN7sc_core9sc_signalIiLNS_16sc_writer_policyE0EED1Ev
	.cfi_startproc
; %bb.0:
	sub	sp, sp, #32
	stp	x29, x30, [sp, #16]             ; 16-byte Folded Spill
	add	x29, sp, #16
	.cfi_def_cfa w29, 16
	.cfi_offset w30, -8
	.cfi_offset w29, -16
	str	x0, [sp, #8]
	ldr	x0, [sp, #8]
	str	x0, [sp]                        ; 8-byte Folded Spill
	adrp	x1, __ZTTN7sc_core9sc_signalIiLNS_16sc_writer_policyE0EEE@GOTPAGE
	ldr	x1, [x1, __ZTTN7sc_core9sc_signalIiLNS_16sc_writer_policyE0EEE@GOTPAGEOFF]
	bl	__ZN7sc_core9sc_signalIiLNS_16sc_writer_policyE0EED2Ev
	ldr	x0, [sp]                        ; 8-byte Folded Reload
	bl	__ZN7sc_core12sc_interfaceD2Ev
	ldr	x0, [sp]                        ; 8-byte Folded Reload
	ldp	x29, x30, [sp, #16]             ; 16-byte Folded Reload
	add	sp, sp, #32
	ret
	.cfi_endproc
                                        ; -- End function
	.globl	__ZN14simple_counterC2EN7sc_core14sc_module_nameE ; -- Begin function _ZN14simple_counterC2EN7sc_core14sc_module_nameE
	.weak_def_can_be_hidden	__ZN14simple_counterC2EN7sc_core14sc_module_nameE
	.p2align	2
__ZN14simple_counterC2EN7sc_core14sc_module_nameE: ; @_ZN14simple_counterC2EN7sc_core14sc_module_nameE
Lfunc_begin3:
	.cfi_startproc
	.cfi_personality 155, ___gxx_personality_v0
	.cfi_lsda 16, Lexception3
; %bb.0:
	sub	sp, sp, #112
	stp	x29, x30, [sp, #96]             ; 16-byte Folded Spill
	add	x29, sp, #96
	.cfi_def_cfa w29, 16
	.cfi_offset w30, -8
	.cfi_offset w29, -16
	adrp	x8, __ZN14simple_counter13count_processEv@GOTPAGE
	ldr	x8, [x8, __ZN14simple_counter13count_processEv@GOTPAGEOFF]
	str	x8, [sp, #32]                   ; 8-byte Folded Spill
	stur	x0, [x29, #-8]
	stur	x1, [x29, #-16]
	ldur	x0, [x29, #-8]
	str	x0, [sp, #40]                   ; 8-byte Folded Spill
	bl	__ZN7sc_core9sc_moduleC2Ev
	ldr	x8, [sp, #40]                   ; 8-byte Folded Reload
	adrp	x9, __ZTV14simple_counter@GOTPAGE
	ldr	x9, [x9, __ZTV14simple_counter@GOTPAGEOFF]
	add	x10, x9, #16
	str	x10, [x8]
	add	x9, x9, #168
	str	x9, [x8, #112]
Ltmp42:
	add	x0, x8, #232
	bl	__ZN7sc_core5sc_inIbEC1Ev
Ltmp43:
	b	LBB11_1
LBB11_1:
	ldr	x8, [sp, #40]                   ; 8-byte Folded Reload
	add	x0, x8, #360
	str	x0, [sp, #24]                   ; 8-byte Folded Spill
Ltmp45:
	bl	__ZN7sc_core5sc_inIbEC1Ev
Ltmp46:
	b	LBB11_2
LBB11_2:
	ldr	x8, [sp, #40]                   ; 8-byte Folded Reload
	add	x0, x8, #488
	str	x0, [sp, #16]                   ; 8-byte Folded Spill
Ltmp48:
	bl	__ZN7sc_core6sc_outIiEC1Ev
Ltmp49:
	b	LBB11_3
LBB11_3:
	ldr	x0, [sp, #40]                   ; 8-byte Folded Reload
	ldr	x8, [sp, #32]                   ; 8-byte Folded Reload
	str	wzr, [x0, #608]
	str	x8, [sp, #48]
	mov	x8, #-224                       ; =0xffffffffffffff20
	str	x8, [sp, #56]
	ldr	x1, [sp, #48]
	ldr	x2, [sp, #56]
Ltmp51:
	adrp	x3, l_.str.2@PAGE
	add	x3, x3, l_.str.2@PAGEOFF
	bl	__ZN7sc_core9sc_module22declare_method_processEMNS_15sc_process_hostEFvvEPKc
Ltmp52:
	b	LBB11_4
LBB11_4:
	ldr	x8, [sp, #40]                   ; 8-byte Folded Reload
	add	x9, x8, #120
	str	x9, [sp]                        ; 8-byte Folded Spill
	add	x0, x8, #232
Ltmp53:
	bl	__ZNK7sc_core5sc_inIbE3posEv
	str	x0, [sp, #8]                    ; 8-byte Folded Spill
Ltmp54:
	b	LBB11_5
LBB11_5:
Ltmp55:
	ldr	x1, [sp, #8]                    ; 8-byte Folded Reload
	ldr	x0, [sp]                        ; 8-byte Folded Reload
	bl	__ZN7sc_core12sc_sensitivelsERNS_15sc_event_finderE
Ltmp56:
	b	LBB11_6
LBB11_6:
	ldr	x0, [sp, #40]                   ; 8-byte Folded Reload
	ldp	x29, x30, [sp, #96]             ; 16-byte Folded Reload
	add	sp, sp, #112
	ret
LBB11_7:
Ltmp44:
	stur	x0, [x29, #-24]
	mov	x8, x1
	stur	w8, [x29, #-28]
	b	LBB11_13
LBB11_8:
Ltmp47:
	stur	x0, [x29, #-24]
	mov	x8, x1
	stur	w8, [x29, #-28]
	b	LBB11_12
LBB11_9:
Ltmp50:
	stur	x0, [x29, #-24]
	mov	x8, x1
	stur	w8, [x29, #-28]
	b	LBB11_11
LBB11_10:
Ltmp57:
	mov	x8, x0
	ldr	x0, [sp, #16]                   ; 8-byte Folded Reload
	stur	x8, [x29, #-24]
	mov	x8, x1
	stur	w8, [x29, #-28]
	bl	__ZN7sc_core6sc_outIiED1Ev
	b	LBB11_11
LBB11_11:
	ldr	x0, [sp, #24]                   ; 8-byte Folded Reload
	bl	__ZN7sc_core5sc_inIbED1Ev
	b	LBB11_12
LBB11_12:
	ldr	x8, [sp, #40]                   ; 8-byte Folded Reload
	add	x0, x8, #232
	bl	__ZN7sc_core5sc_inIbED1Ev
	b	LBB11_13
LBB11_13:
	ldr	x0, [sp, #40]                   ; 8-byte Folded Reload
	bl	__ZN7sc_core9sc_moduleD2Ev
	b	LBB11_14
LBB11_14:
	ldur	x0, [x29, #-24]
	bl	__Unwind_Resume
Lfunc_end3:
	.cfi_endproc
	.section	__TEXT,__gcc_except_tab
	.p2align	2, 0x0
GCC_except_table11:
Lexception3:
	.byte	255                             ; @LPStart Encoding = omit
	.byte	255                             ; @TType Encoding = omit
	.byte	1                               ; Call site Encoding = uleb128
	.uleb128 Lcst_end3-Lcst_begin3
Lcst_begin3:
	.uleb128 Lfunc_begin3-Lfunc_begin3      ; >> Call Site 1 <<
	.uleb128 Ltmp42-Lfunc_begin3            ;   Call between Lfunc_begin3 and Ltmp42
	.byte	0                               ;     has no landing pad
	.byte	0                               ;   On action: cleanup
	.uleb128 Ltmp42-Lfunc_begin3            ; >> Call Site 2 <<
	.uleb128 Ltmp43-Ltmp42                  ;   Call between Ltmp42 and Ltmp43
	.uleb128 Ltmp44-Lfunc_begin3            ;     jumps to Ltmp44
	.byte	0                               ;   On action: cleanup
	.uleb128 Ltmp45-Lfunc_begin3            ; >> Call Site 3 <<
	.uleb128 Ltmp46-Ltmp45                  ;   Call between Ltmp45 and Ltmp46
	.uleb128 Ltmp47-Lfunc_begin3            ;     jumps to Ltmp47
	.byte	0                               ;   On action: cleanup
	.uleb128 Ltmp48-Lfunc_begin3            ; >> Call Site 4 <<
	.uleb128 Ltmp49-Ltmp48                  ;   Call between Ltmp48 and Ltmp49
	.uleb128 Ltmp50-Lfunc_begin3            ;     jumps to Ltmp50
	.byte	0                               ;   On action: cleanup
	.uleb128 Ltmp51-Lfunc_begin3            ; >> Call Site 5 <<
	.uleb128 Ltmp56-Ltmp51                  ;   Call between Ltmp51 and Ltmp56
	.uleb128 Ltmp57-Lfunc_begin3            ;     jumps to Ltmp57
	.byte	0                               ;   On action: cleanup
	.uleb128 Ltmp56-Lfunc_begin3            ; >> Call Site 6 <<
	.uleb128 Lfunc_end3-Ltmp56              ;   Call between Ltmp56 and Lfunc_end3
	.byte	0                               ;     has no landing pad
	.byte	0                               ;   On action: cleanup
Lcst_end3:
	.p2align	2, 0x0
                                        ; -- End function
	.section	__TEXT,__text,regular,pure_instructions
	.globl	__ZN7sc_core5sc_inIbEC1Ev       ; -- Begin function _ZN7sc_core5sc_inIbEC1Ev
	.weak_def_can_be_hidden	__ZN7sc_core5sc_inIbEC1Ev
	.p2align	2
__ZN7sc_core5sc_inIbEC1Ev:              ; @_ZN7sc_core5sc_inIbEC1Ev
	.cfi_startproc
; %bb.0:
	sub	sp, sp, #32
	stp	x29, x30, [sp, #16]             ; 16-byte Folded Spill
	add	x29, sp, #16
	.cfi_def_cfa w29, 16
	.cfi_offset w30, -8
	.cfi_offset w29, -16
	str	x0, [sp, #8]
	ldr	x0, [sp, #8]
	str	x0, [sp]                        ; 8-byte Folded Spill
	bl	__ZN7sc_core5sc_inIbEC2Ev
	ldr	x0, [sp]                        ; 8-byte Folded Reload
	ldp	x29, x30, [sp, #16]             ; 16-byte Folded Reload
	add	sp, sp, #32
	ret
	.cfi_endproc
                                        ; -- End function
	.globl	__ZN7sc_core6sc_outIiEC1Ev      ; -- Begin function _ZN7sc_core6sc_outIiEC1Ev
	.weak_def_can_be_hidden	__ZN7sc_core6sc_outIiEC1Ev
	.p2align	2
__ZN7sc_core6sc_outIiEC1Ev:             ; @_ZN7sc_core6sc_outIiEC1Ev
	.cfi_startproc
; %bb.0:
	sub	sp, sp, #32
	stp	x29, x30, [sp, #16]             ; 16-byte Folded Spill
	add	x29, sp, #16
	.cfi_def_cfa w29, 16
	.cfi_offset w30, -8
	.cfi_offset w29, -16
	str	x0, [sp, #8]
	ldr	x0, [sp, #8]
	str	x0, [sp]                        ; 8-byte Folded Spill
	bl	__ZN7sc_core6sc_outIiEC2Ev
	ldr	x0, [sp]                        ; 8-byte Folded Reload
	ldp	x29, x30, [sp, #16]             ; 16-byte Folded Reload
	add	sp, sp, #32
	ret
	.cfi_endproc
                                        ; -- End function
	.globl	__ZN14simple_counter13count_processEv ; -- Begin function _ZN14simple_counter13count_processEv
	.weak_definition	__ZN14simple_counter13count_processEv
	.p2align	2
__ZN14simple_counter13count_processEv:  ; @_ZN14simple_counter13count_processEv
	.cfi_startproc
; %bb.0:
	sub	sp, sp, #32
	stp	x29, x30, [sp, #16]             ; 16-byte Folded Spill
	add	x29, sp, #16
	.cfi_def_cfa w29, 16
	.cfi_offset w30, -8
	.cfi_offset w29, -16
	str	x0, [sp, #8]
	ldr	x8, [sp, #8]
	str	x8, [sp]                        ; 8-byte Folded Spill
	add	x0, x8, #360
	bl	__ZNK7sc_core5sc_inIbE4readEv
	ldrb	w8, [x0]
	tbz	w8, #0, LBB14_2
	b	LBB14_1
LBB14_1:
	ldr	x8, [sp]                        ; 8-byte Folded Reload
	str	wzr, [x8, #608]
	b	LBB14_3
LBB14_2:
	ldr	x9, [sp]                        ; 8-byte Folded Reload
	ldr	w8, [x9, #608]
	add	w8, w8, #1
	str	w8, [x9, #608]
	b	LBB14_3
LBB14_3:
	ldr	x8, [sp]                        ; 8-byte Folded Reload
	add	x0, x8, #488
	add	x1, x8, #608
	bl	__ZN7sc_core8sc_inoutIiE5writeERKi
	adrp	x0, __ZNSt3__14coutE@GOTPAGE
	ldr	x0, [x0, __ZNSt3__14coutE@GOTPAGEOFF]
	adrp	x1, l_.str.13@PAGE
	add	x1, x1, l_.str.13@PAGEOFF
	bl	__ZNSt3__1lsB8ne200100INS_11char_traitsIcEEEERNS_13basic_ostreamIcT_EES6_PKc
	ldr	x8, [sp]                        ; 8-byte Folded Reload
	ldr	w1, [x8, #608]
	bl	__ZNSt3__113basic_ostreamIcNS_11char_traitsIcEEElsEi
	adrp	x1, __ZNSt3__14endlB8ne200100IcNS_11char_traitsIcEEEERNS_13basic_ostreamIT_T0_EES7_@PAGE
	add	x1, x1, __ZNSt3__14endlB8ne200100IcNS_11char_traitsIcEEEERNS_13basic_ostreamIT_T0_EES7_@PAGEOFF
	bl	__ZNSt3__113basic_ostreamIcNS_11char_traitsIcEEElsB8ne200100EPFRS3_S4_E
	ldp	x29, x30, [sp, #16]             ; 16-byte Folded Reload
	add	sp, sp, #32
	ret
	.cfi_endproc
                                        ; -- End function
	.globl	__ZNK7sc_core5sc_inIbE3posEv    ; -- Begin function _ZNK7sc_core5sc_inIbE3posEv
	.weak_definition	__ZNK7sc_core5sc_inIbE3posEv
	.p2align	2
__ZNK7sc_core5sc_inIbE3posEv:           ; @_ZNK7sc_core5sc_inIbE3posEv
	.cfi_startproc
; %bb.0:
	sub	sp, sp, #48
	stp	x29, x30, [sp, #32]             ; 16-byte Folded Spill
	add	x29, sp, #32
	.cfi_def_cfa w29, 16
	.cfi_offset w30, -8
	.cfi_offset w29, -16
	stur	x0, [x29, #-8]
	ldur	x1, [x29, #-8]
	mov	x8, #40                         ; =0x28
	str	x8, [sp, #8]
	mov	x8, #1                          ; =0x1
	str	x8, [sp, #16]
	ldr	x2, [sp, #8]
	ldr	x3, [sp, #16]
	mov	x8, x1
	add	x0, x8, #120
	bl	__ZN7sc_core15sc_event_finder13cached_createINS_15sc_signal_in_ifIbEEEERS0_RPS0_RKNS_12sc_port_baseEMT_KFRKNS_8sc_eventEvE
	ldp	x29, x30, [sp, #32]             ; 16-byte Folded Reload
	add	sp, sp, #48
	ret
	.cfi_endproc
                                        ; -- End function
	.globl	__ZN7sc_core6sc_outIiED1Ev      ; -- Begin function _ZN7sc_core6sc_outIiED1Ev
	.weak_def_can_be_hidden	__ZN7sc_core6sc_outIiED1Ev
	.p2align	2
__ZN7sc_core6sc_outIiED1Ev:             ; @_ZN7sc_core6sc_outIiED1Ev
	.cfi_startproc
; %bb.0:
	sub	sp, sp, #32
	stp	x29, x30, [sp, #16]             ; 16-byte Folded Spill
	add	x29, sp, #16
	.cfi_def_cfa w29, 16
	.cfi_offset w30, -8
	.cfi_offset w29, -16
	str	x0, [sp, #8]
	ldr	x0, [sp, #8]
	str	x0, [sp]                        ; 8-byte Folded Spill
	bl	__ZN7sc_core6sc_outIiED2Ev
	ldr	x0, [sp]                        ; 8-byte Folded Reload
	ldp	x29, x30, [sp, #16]             ; 16-byte Folded Reload
	add	sp, sp, #32
	ret
	.cfi_endproc
                                        ; -- End function
	.globl	__ZN7sc_core5sc_inIbED1Ev       ; -- Begin function _ZN7sc_core5sc_inIbED1Ev
	.weak_def_can_be_hidden	__ZN7sc_core5sc_inIbED1Ev
	.p2align	2
__ZN7sc_core5sc_inIbED1Ev:              ; @_ZN7sc_core5sc_inIbED1Ev
	.cfi_startproc
; %bb.0:
	sub	sp, sp, #32
	stp	x29, x30, [sp, #16]             ; 16-byte Folded Spill
	add	x29, sp, #16
	.cfi_def_cfa w29, 16
	.cfi_offset w30, -8
	.cfi_offset w29, -16
	str	x0, [sp, #8]
	ldr	x0, [sp, #8]
	str	x0, [sp]                        ; 8-byte Folded Spill
	bl	__ZN7sc_core5sc_inIbED2Ev
	ldr	x0, [sp]                        ; 8-byte Folded Reload
	ldp	x29, x30, [sp, #16]             ; 16-byte Folded Reload
	add	sp, sp, #32
	ret
	.cfi_endproc
                                        ; -- End function
	.globl	__ZNK7sc_core9sc_module4kindEv  ; -- Begin function _ZNK7sc_core9sc_module4kindEv
	.weak_def_can_be_hidden	__ZNK7sc_core9sc_module4kindEv
	.p2align	2
__ZNK7sc_core9sc_module4kindEv:         ; @_ZNK7sc_core9sc_module4kindEv
	.cfi_startproc
; %bb.0:
	sub	sp, sp, #16
	.cfi_def_cfa_offset 16
	str	x0, [sp, #8]
	adrp	x0, l_.str.16@PAGE
	add	x0, x0, l_.str.16@PAGEOFF
	add	sp, sp, #16
	ret
	.cfi_endproc
                                        ; -- End function
	.globl	__ZNK7sc_core14sc_object_host16get_child_eventsEv ; -- Begin function _ZNK7sc_core14sc_object_host16get_child_eventsEv
	.weak_def_can_be_hidden	__ZNK7sc_core14sc_object_host16get_child_eventsEv
	.p2align	2
__ZNK7sc_core14sc_object_host16get_child_eventsEv: ; @_ZNK7sc_core14sc_object_host16get_child_eventsEv
	.cfi_startproc
; %bb.0:
	sub	sp, sp, #16
	.cfi_def_cfa_offset 16
	str	x0, [sp, #8]
	ldr	x8, [sp, #8]
	add	x0, x8, #56
	add	sp, sp, #16
	ret
	.cfi_endproc
                                        ; -- End function
	.globl	__ZNK7sc_core14sc_object_host17get_child_objectsEv ; -- Begin function _ZNK7sc_core14sc_object_host17get_child_objectsEv
	.weak_def_can_be_hidden	__ZNK7sc_core14sc_object_host17get_child_objectsEv
	.p2align	2
__ZNK7sc_core14sc_object_host17get_child_objectsEv: ; @_ZNK7sc_core14sc_object_host17get_child_objectsEv
	.cfi_startproc
; %bb.0:
	sub	sp, sp, #16
	.cfi_def_cfa_offset 16
	str	x0, [sp, #8]
	ldr	x8, [sp, #8]
	add	x0, x8, #80
	add	sp, sp, #16
	ret
	.cfi_endproc
                                        ; -- End function
	.globl	__ZN14simple_counterD0Ev        ; -- Begin function _ZN14simple_counterD0Ev
	.weak_def_can_be_hidden	__ZN14simple_counterD0Ev
	.p2align	2
__ZN14simple_counterD0Ev:               ; @_ZN14simple_counterD0Ev
	.cfi_startproc
; %bb.0:
	sub	sp, sp, #32
	stp	x29, x30, [sp, #16]             ; 16-byte Folded Spill
	add	x29, sp, #16
	.cfi_def_cfa w29, 16
	.cfi_offset w30, -8
	.cfi_offset w29, -16
	str	x0, [sp, #8]
	ldr	x0, [sp, #8]
	str	x0, [sp]                        ; 8-byte Folded Spill
	bl	__ZN14simple_counterD1Ev
	ldr	x0, [sp]                        ; 8-byte Folded Reload
	mov	x1, #616                        ; =0x268
	bl	__ZdlPvm
	ldp	x29, x30, [sp, #16]             ; 16-byte Folded Reload
	add	sp, sp, #32
	ret
	.cfi_endproc
                                        ; -- End function
	.globl	__ZThn112_N14simple_counterD1Ev ; -- Begin function _ZThn112_N14simple_counterD1Ev
	.weak_def_can_be_hidden	__ZThn112_N14simple_counterD1Ev
	.p2align	2
__ZThn112_N14simple_counterD1Ev:        ; @_ZThn112_N14simple_counterD1Ev
	.cfi_startproc
; %bb.0:
	sub	sp, sp, #16
	.cfi_def_cfa_offset 16
	str	x0, [sp]
	ldr	x8, [sp]
	str	x8, [sp, #8]
	subs	x0, x8, #112
	add	sp, sp, #16
	b	__ZN14simple_counterD1Ev
	.cfi_endproc
                                        ; -- End function
	.globl	__ZThn112_N14simple_counterD0Ev ; -- Begin function _ZThn112_N14simple_counterD0Ev
	.weak_def_can_be_hidden	__ZThn112_N14simple_counterD0Ev
	.p2align	2
__ZThn112_N14simple_counterD0Ev:        ; @_ZThn112_N14simple_counterD0Ev
	.cfi_startproc
; %bb.0:
	sub	sp, sp, #16
	.cfi_def_cfa_offset 16
	str	x0, [sp, #8]
	ldr	x8, [sp, #8]
	subs	x0, x8, #112
	add	sp, sp, #16
	b	__ZN14simple_counterD0Ev
	.cfi_endproc
                                        ; -- End function
	.globl	__ZN7sc_core5sc_inIbEC2Ev       ; -- Begin function _ZN7sc_core5sc_inIbEC2Ev
	.weak_def_can_be_hidden	__ZN7sc_core5sc_inIbEC2Ev
	.p2align	2
__ZN7sc_core5sc_inIbEC2Ev:              ; @_ZN7sc_core5sc_inIbEC2Ev
	.cfi_startproc
; %bb.0:
	sub	sp, sp, #32
	stp	x29, x30, [sp, #16]             ; 16-byte Folded Spill
	add	x29, sp, #16
	.cfi_def_cfa w29, 16
	.cfi_offset w30, -8
	.cfi_offset w29, -16
	str	x0, [sp, #8]
	ldr	x0, [sp, #8]
	str	x0, [sp]                        ; 8-byte Folded Spill
	bl	__ZN7sc_core7sc_portINS_15sc_signal_in_ifIbEELi1ELNS_14sc_port_policyE0EEC2Ev
	ldr	x0, [sp]                        ; 8-byte Folded Reload
	adrp	x8, __ZTVN7sc_core5sc_inIbEE@GOTPAGE
	ldr	x8, [x8, __ZTVN7sc_core5sc_inIbEE@GOTPAGEOFF]
	add	x8, x8, #16
	str	x8, [x0]
                                        ; kill: def $x8 killed $xzr
	str	xzr, [x0, #96]
	str	xzr, [x0, #104]
	str	xzr, [x0, #112]
	str	xzr, [x0, #120]
	ldp	x29, x30, [sp, #16]             ; 16-byte Folded Reload
	add	sp, sp, #32
	ret
	.cfi_endproc
                                        ; -- End function
	.globl	__ZN7sc_core6sc_outIiEC2Ev      ; -- Begin function _ZN7sc_core6sc_outIiEC2Ev
	.weak_def_can_be_hidden	__ZN7sc_core6sc_outIiEC2Ev
	.p2align	2
__ZN7sc_core6sc_outIiEC2Ev:             ; @_ZN7sc_core6sc_outIiEC2Ev
	.cfi_startproc
; %bb.0:
	sub	sp, sp, #32
	stp	x29, x30, [sp, #16]             ; 16-byte Folded Spill
	add	x29, sp, #16
	.cfi_def_cfa w29, 16
	.cfi_offset w30, -8
	.cfi_offset w29, -16
	str	x0, [sp, #8]
	ldr	x0, [sp, #8]
	str	x0, [sp]                        ; 8-byte Folded Spill
	bl	__ZN7sc_core8sc_inoutIiEC2Ev
	ldr	x0, [sp]                        ; 8-byte Folded Reload
	adrp	x8, __ZTVN7sc_core6sc_outIiEE@GOTPAGE
	ldr	x8, [x8, __ZTVN7sc_core6sc_outIiEE@GOTPAGEOFF]
	add	x8, x8, #16
	str	x8, [x0]
	ldp	x29, x30, [sp, #16]             ; 16-byte Folded Reload
	add	sp, sp, #32
	ret
	.cfi_endproc
                                        ; -- End function
	.globl	__ZN7sc_core8sc_inoutIiEC2Ev    ; -- Begin function _ZN7sc_core8sc_inoutIiEC2Ev
	.weak_def_can_be_hidden	__ZN7sc_core8sc_inoutIiEC2Ev
	.p2align	2
__ZN7sc_core8sc_inoutIiEC2Ev:           ; @_ZN7sc_core8sc_inoutIiEC2Ev
	.cfi_startproc
; %bb.0:
	sub	sp, sp, #32
	stp	x29, x30, [sp, #16]             ; 16-byte Folded Spill
	add	x29, sp, #16
	.cfi_def_cfa w29, 16
	.cfi_offset w30, -8
	.cfi_offset w29, -16
	str	x0, [sp, #8]
	ldr	x0, [sp, #8]
	str	x0, [sp]                        ; 8-byte Folded Spill
	bl	__ZN7sc_core7sc_portINS_18sc_signal_inout_ifIiEELi1ELNS_14sc_port_policyE0EEC2Ev
	ldr	x0, [sp]                        ; 8-byte Folded Reload
	adrp	x8, __ZTVN7sc_core8sc_inoutIiEE@GOTPAGE
	ldr	x8, [x8, __ZTVN7sc_core8sc_inoutIiEE@GOTPAGEOFF]
	add	x8, x8, #16
	str	x8, [x0]
                                        ; kill: def $x8 killed $xzr
	str	xzr, [x0, #96]
	str	xzr, [x0, #104]
	str	xzr, [x0, #112]
	ldp	x29, x30, [sp, #16]             ; 16-byte Folded Reload
	add	sp, sp, #32
	ret
	.cfi_endproc
                                        ; -- End function
	.globl	__ZNK7sc_core6sc_outIiE4kindEv  ; -- Begin function _ZNK7sc_core6sc_outIiE4kindEv
	.weak_def_can_be_hidden	__ZNK7sc_core6sc_outIiE4kindEv
	.p2align	2
__ZNK7sc_core6sc_outIiE4kindEv:         ; @_ZNK7sc_core6sc_outIiE4kindEv
	.cfi_startproc
; %bb.0:
	sub	sp, sp, #16
	.cfi_def_cfa_offset 16
	str	x0, [sp, #8]
	adrp	x0, l_.str.6@PAGE
	add	x0, x0, l_.str.6@PAGEOFF
	add	sp, sp, #16
	ret
	.cfi_endproc
                                        ; -- End function
	.globl	__ZN7sc_core6sc_outIiED0Ev      ; -- Begin function _ZN7sc_core6sc_outIiED0Ev
	.weak_def_can_be_hidden	__ZN7sc_core6sc_outIiED0Ev
	.p2align	2
__ZN7sc_core6sc_outIiED0Ev:             ; @_ZN7sc_core6sc_outIiED0Ev
	.cfi_startproc
; %bb.0:
	sub	sp, sp, #32
	stp	x29, x30, [sp, #16]             ; 16-byte Folded Spill
	add	x29, sp, #16
	.cfi_def_cfa w29, 16
	.cfi_offset w30, -8
	.cfi_offset w29, -16
	str	x0, [sp, #8]
	ldr	x0, [sp, #8]
	str	x0, [sp]                        ; 8-byte Folded Spill
	bl	__ZN7sc_core6sc_outIiED1Ev
	ldr	x0, [sp]                        ; 8-byte Folded Reload
	mov	x1, #120                        ; =0x78
	bl	__ZdlPvm
	ldp	x29, x30, [sp, #16]             ; 16-byte Folded Reload
	add	sp, sp, #32
	ret
	.cfi_endproc
                                        ; -- End function
	.globl	__ZN7sc_core9sc_port_bINS_18sc_signal_inout_ifIiEEE13get_interfaceEv ; -- Begin function _ZN7sc_core9sc_port_bINS_18sc_signal_inout_ifIiEEE13get_interfaceEv
	.weak_def_can_be_hidden	__ZN7sc_core9sc_port_bINS_18sc_signal_inout_ifIiEEE13get_interfaceEv
	.p2align	2
__ZN7sc_core9sc_port_bINS_18sc_signal_inout_ifIiEEE13get_interfaceEv: ; @_ZN7sc_core9sc_port_bINS_18sc_signal_inout_ifIiEEE13get_interfaceEv
	.cfi_startproc
; %bb.0:
	sub	sp, sp, #32
	.cfi_def_cfa_offset 32
	str	x0, [sp, #24]
	ldr	x8, [sp, #24]
	ldr	x8, [x8, #64]
	str	x8, [sp, #8]                    ; 8-byte Folded Spill
	mov	x9, #0                          ; =0x0
	str	x9, [sp, #16]                   ; 8-byte Folded Spill
	cbz	x8, LBB29_2
	b	LBB29_1
LBB29_1:
	ldr	x8, [sp, #8]                    ; 8-byte Folded Reload
	ldr	x9, [x8]
	ldur	x9, [x9, #-48]
	add	x8, x8, x9
	str	x8, [sp, #16]                   ; 8-byte Folded Spill
	b	LBB29_2
LBB29_2:
	ldr	x0, [sp, #16]                   ; 8-byte Folded Reload
	add	sp, sp, #32
	ret
	.cfi_endproc
                                        ; -- End function
	.globl	__ZNK7sc_core9sc_port_bINS_18sc_signal_inout_ifIiEEE13get_interfaceEv ; -- Begin function _ZNK7sc_core9sc_port_bINS_18sc_signal_inout_ifIiEEE13get_interfaceEv
	.weak_def_can_be_hidden	__ZNK7sc_core9sc_port_bINS_18sc_signal_inout_ifIiEEE13get_interfaceEv
	.p2align	2
__ZNK7sc_core9sc_port_bINS_18sc_signal_inout_ifIiEEE13get_interfaceEv: ; @_ZNK7sc_core9sc_port_bINS_18sc_signal_inout_ifIiEEE13get_interfaceEv
	.cfi_startproc
; %bb.0:
	sub	sp, sp, #32
	.cfi_def_cfa_offset 32
	str	x0, [sp, #24]
	ldr	x8, [sp, #24]
	ldr	x8, [x8, #64]
	str	x8, [sp, #8]                    ; 8-byte Folded Spill
	mov	x9, #0                          ; =0x0
	str	x9, [sp, #16]                   ; 8-byte Folded Spill
	cbz	x8, LBB30_2
	b	LBB30_1
LBB30_1:
	ldr	x8, [sp, #8]                    ; 8-byte Folded Reload
	ldr	x9, [x8]
	ldur	x9, [x9, #-48]
	add	x8, x8, x9
	str	x8, [sp, #16]                   ; 8-byte Folded Spill
	b	LBB30_2
LBB30_2:
	ldr	x0, [sp, #16]                   ; 8-byte Folded Reload
	add	sp, sp, #32
	ret
	.cfi_endproc
                                        ; -- End function
	.globl	__ZNK7sc_core9sc_port_bINS_18sc_signal_inout_ifIiEEE18get_interface_typeEv ; -- Begin function _ZNK7sc_core9sc_port_bINS_18sc_signal_inout_ifIiEEE18get_interface_typeEv
	.weak_def_can_be_hidden	__ZNK7sc_core9sc_port_bINS_18sc_signal_inout_ifIiEEE18get_interface_typeEv
	.p2align	2
__ZNK7sc_core9sc_port_bINS_18sc_signal_inout_ifIiEEE18get_interface_typeEv: ; @_ZNK7sc_core9sc_port_bINS_18sc_signal_inout_ifIiEEE18get_interface_typeEv
	.cfi_startproc
; %bb.0:
	sub	sp, sp, #32
	stp	x29, x30, [sp, #16]             ; 16-byte Folded Spill
	add	x29, sp, #16
	.cfi_def_cfa w29, 16
	.cfi_offset w30, -8
	.cfi_offset w29, -16
	str	x0, [sp]
	add	x0, sp, #8
	adrp	x1, __ZTIN7sc_core18sc_signal_inout_ifIiEE@PAGE
	add	x1, x1, __ZTIN7sc_core18sc_signal_inout_ifIiEE@PAGEOFF
	bl	__ZNSt3__110type_indexC1B8ne200100ERKSt9type_info
	ldr	x0, [sp, #8]
	ldp	x29, x30, [sp, #16]             ; 16-byte Folded Reload
	add	sp, sp, #32
	ret
	.cfi_endproc
                                        ; -- End function
	.globl	__ZN7sc_core9sc_port_bINS_18sc_signal_inout_ifIiEEE5vbindERNS_12sc_interfaceE ; -- Begin function _ZN7sc_core9sc_port_bINS_18sc_signal_inout_ifIiEEE5vbindERNS_12sc_interfaceE
	.weak_def_can_be_hidden	__ZN7sc_core9sc_port_bINS_18sc_signal_inout_ifIiEEE5vbindERNS_12sc_interfaceE
	.p2align	2
__ZN7sc_core9sc_port_bINS_18sc_signal_inout_ifIiEEE5vbindERNS_12sc_interfaceE: ; @_ZN7sc_core9sc_port_bINS_18sc_signal_inout_ifIiEEE5vbindERNS_12sc_interfaceE
	.cfi_startproc
; %bb.0:
	sub	sp, sp, #80
	stp	x29, x30, [sp, #64]             ; 16-byte Folded Spill
	add	x29, sp, #64
	.cfi_def_cfa w29, 16
	.cfi_offset w30, -8
	.cfi_offset w29, -16
	stur	x0, [x29, #-16]
	stur	x1, [x29, #-24]
	ldur	x8, [x29, #-16]
	str	x8, [sp, #16]                   ; 8-byte Folded Spill
	ldur	x8, [x29, #-24]
	str	x8, [sp, #24]                   ; 8-byte Folded Spill
	cbz	x8, LBB32_2
	b	LBB32_1
LBB32_1:
	ldr	x0, [sp, #24]                   ; 8-byte Folded Reload
	adrp	x1, __ZTIN7sc_core12sc_interfaceE@GOTPAGE
	ldr	x1, [x1, __ZTIN7sc_core12sc_interfaceE@GOTPAGEOFF]
	adrp	x2, __ZTIN7sc_core18sc_signal_inout_ifIiEE@PAGE
	add	x2, x2, __ZTIN7sc_core18sc_signal_inout_ifIiEE@PAGEOFF
	mov	x3, #-1                         ; =0xffffffffffffffff
	bl	___dynamic_cast
	str	x0, [sp, #8]                    ; 8-byte Folded Spill
	b	LBB32_3
LBB32_2:
	mov	x8, #0                          ; =0x0
	str	x8, [sp, #8]                    ; 8-byte Folded Spill
	b	LBB32_3
LBB32_3:
	ldr	x8, [sp, #8]                    ; 8-byte Folded Reload
	str	x8, [sp, #32]
	ldr	x8, [sp, #32]
	cbnz	x8, LBB32_5
	b	LBB32_4
LBB32_4:
	mov	w8, #2                          ; =0x2
	stur	w8, [x29, #-4]
	b	LBB32_6
LBB32_5:
	ldr	x0, [sp, #16]                   ; 8-byte Folded Reload
	ldr	x8, [sp, #32]
	ldr	x9, [x8]
	ldur	x9, [x9, #-48]
	add	x1, x8, x9
	bl	__ZN7sc_core12sc_port_base4bindERNS_12sc_interfaceE
	stur	wzr, [x29, #-4]
	b	LBB32_6
LBB32_6:
	ldur	w0, [x29, #-4]
	ldp	x29, x30, [sp, #64]             ; 16-byte Folded Reload
	add	sp, sp, #80
	ret
	.cfi_endproc
                                        ; -- End function
	.globl	__ZN7sc_core9sc_port_bINS_18sc_signal_inout_ifIiEEE5vbindERNS_12sc_port_baseE ; -- Begin function _ZN7sc_core9sc_port_bINS_18sc_signal_inout_ifIiEEE5vbindERNS_12sc_port_baseE
	.weak_def_can_be_hidden	__ZN7sc_core9sc_port_bINS_18sc_signal_inout_ifIiEEE5vbindERNS_12sc_port_baseE
	.p2align	2
__ZN7sc_core9sc_port_bINS_18sc_signal_inout_ifIiEEE5vbindERNS_12sc_port_baseE: ; @_ZN7sc_core9sc_port_bINS_18sc_signal_inout_ifIiEEE5vbindERNS_12sc_port_baseE
	.cfi_startproc
; %bb.0:
	sub	sp, sp, #80
	stp	x29, x30, [sp, #64]             ; 16-byte Folded Spill
	add	x29, sp, #64
	.cfi_def_cfa w29, 16
	.cfi_offset w30, -8
	.cfi_offset w29, -16
	stur	x0, [x29, #-16]
	stur	x1, [x29, #-24]
	ldur	x8, [x29, #-16]
	str	x8, [sp, #16]                   ; 8-byte Folded Spill
	ldur	x8, [x29, #-24]
	str	x8, [sp, #24]                   ; 8-byte Folded Spill
	cbz	x8, LBB33_2
	b	LBB33_1
LBB33_1:
	ldr	x0, [sp, #24]                   ; 8-byte Folded Reload
	adrp	x1, __ZTIN7sc_core12sc_port_baseE@GOTPAGE
	ldr	x1, [x1, __ZTIN7sc_core12sc_port_baseE@GOTPAGEOFF]
	adrp	x2, __ZTIN7sc_core9sc_port_bINS_18sc_signal_inout_ifIiEEEE@PAGE
	add	x2, x2, __ZTIN7sc_core9sc_port_bINS_18sc_signal_inout_ifIiEEEE@PAGEOFF
	mov	x3, #0                          ; =0x0
	bl	___dynamic_cast
	str	x0, [sp, #8]                    ; 8-byte Folded Spill
	b	LBB33_3
LBB33_2:
	mov	x8, #0                          ; =0x0
	str	x8, [sp, #8]                    ; 8-byte Folded Spill
	b	LBB33_3
LBB33_3:
	ldr	x8, [sp, #8]                    ; 8-byte Folded Reload
	str	x8, [sp, #32]
	ldr	x8, [sp, #32]
	cbnz	x8, LBB33_5
	b	LBB33_4
LBB33_4:
	mov	w8, #2                          ; =0x2
	stur	w8, [x29, #-4]
	b	LBB33_6
LBB33_5:
	ldr	x0, [sp, #16]                   ; 8-byte Folded Reload
	ldr	x1, [sp, #32]
	bl	__ZN7sc_core12sc_port_base4bindERS0_
	stur	wzr, [x29, #-4]
	b	LBB33_6
LBB33_6:
	ldur	w0, [x29, #-4]
	ldp	x29, x30, [sp, #64]             ; 16-byte Folded Reload
	add	sp, sp, #80
	ret
	.cfi_endproc
                                        ; -- End function
	.globl	__ZN7sc_core9sc_port_bINS_18sc_signal_inout_ifIiEEE13add_interfaceEPNS_12sc_interfaceE ; -- Begin function _ZN7sc_core9sc_port_bINS_18sc_signal_inout_ifIiEEE13add_interfaceEPNS_12sc_interfaceE
	.weak_def_can_be_hidden	__ZN7sc_core9sc_port_bINS_18sc_signal_inout_ifIiEEE13add_interfaceEPNS_12sc_interfaceE
	.p2align	2
__ZN7sc_core9sc_port_bINS_18sc_signal_inout_ifIiEEE13add_interfaceEPNS_12sc_interfaceE: ; @_ZN7sc_core9sc_port_bINS_18sc_signal_inout_ifIiEEE13add_interfaceEPNS_12sc_interfaceE
	.cfi_startproc
; %bb.0:
	sub	sp, sp, #80
	stp	x29, x30, [sp, #64]             ; 16-byte Folded Spill
	add	x29, sp, #64
	.cfi_def_cfa w29, 16
	.cfi_offset w30, -8
	.cfi_offset w29, -16
	stur	x0, [x29, #-8]
	stur	x1, [x29, #-16]
	ldur	x8, [x29, #-8]
	str	x8, [sp, #16]                   ; 8-byte Folded Spill
	ldur	x8, [x29, #-16]
	str	x8, [sp, #24]                   ; 8-byte Folded Spill
	cbz	x8, LBB34_2
	b	LBB34_1
LBB34_1:
	ldr	x0, [sp, #24]                   ; 8-byte Folded Reload
	adrp	x1, __ZTIN7sc_core12sc_interfaceE@GOTPAGE
	ldr	x1, [x1, __ZTIN7sc_core12sc_interfaceE@GOTPAGEOFF]
	adrp	x2, __ZTIN7sc_core18sc_signal_inout_ifIiEE@PAGE
	add	x2, x2, __ZTIN7sc_core18sc_signal_inout_ifIiEE@PAGEOFF
	mov	x3, #-1                         ; =0xffffffffffffffff
	bl	___dynamic_cast
	str	x0, [sp, #8]                    ; 8-byte Folded Spill
	b	LBB34_3
LBB34_2:
	mov	x8, #0                          ; =0x0
	str	x8, [sp, #8]                    ; 8-byte Folded Spill
	b	LBB34_3
LBB34_3:
	ldr	x8, [sp, #8]                    ; 8-byte Folded Reload
	stur	x8, [x29, #-24]
	ldur	x8, [x29, #-24]
	cbz	x8, LBB34_5
	b	LBB34_4
LBB34_4:
	b	LBB34_6
LBB34_5:
	adrp	x0, l_.str.7@PAGE
	add	x0, x0, l_.str.7@PAGEOFF
	adrp	x1, l_.str.8@PAGE
	add	x1, x1, l_.str.8@PAGEOFF
	mov	w2, #548                        ; =0x224
	bl	__ZN7sc_core19sc_assertion_failedEPKcS1_i
LBB34_6:
	ldr	x0, [sp, #16]                   ; 8-byte Folded Reload
	bl	__ZNK7sc_core9sc_port_bINS_18sc_signal_inout_ifIiEEE4sizeEv
	stur	w0, [x29, #-28]
	str	wzr, [sp, #32]
	b	LBB34_7
LBB34_7:                                ; =>This Inner Loop Header: Depth=1
	ldr	w8, [sp, #32]
	ldur	w9, [x29, #-28]
	subs	w8, w8, w9
	b.ge	LBB34_12
	b	LBB34_8
LBB34_8:                                ;   in Loop: Header=BB34_7 Depth=1
	ldr	x8, [sp, #16]                   ; 8-byte Folded Reload
	ldur	x9, [x29, #-24]
	str	x9, [sp]                        ; 8-byte Folded Spill
	add	x0, x8, #72
	ldrsw	x1, [sp, #32]
	bl	__ZNSt3__16vectorIPN7sc_core18sc_signal_inout_ifIiEENS_9allocatorIS4_EEEixB8ne200100Em
	ldr	x8, [sp]                        ; 8-byte Folded Reload
	ldr	x9, [x0]
	subs	x8, x8, x9
	b.ne	LBB34_10
	b	LBB34_9
LBB34_9:                                ;   in Loop: Header=BB34_7 Depth=1
	ldr	x0, [sp, #16]                   ; 8-byte Folded Reload
	adrp	x1, __ZN7sc_core22SC_ID_BIND_IF_TO_PORT_E@GOTPAGE
	ldr	x1, [x1, __ZN7sc_core22SC_ID_BIND_IF_TO_PORT_E@GOTPAGEOFF]
	adrp	x2, l_.str.9@PAGE
	add	x2, x2, l_.str.9@PAGEOFF
	bl	__ZNK7sc_core12sc_port_base12report_errorEPKcS2_
	b	LBB34_10
LBB34_10:                               ;   in Loop: Header=BB34_7 Depth=1
	b	LBB34_11
LBB34_11:                               ;   in Loop: Header=BB34_7 Depth=1
	ldr	w8, [sp, #32]
	add	w8, w8, #1
	str	w8, [sp, #32]
	b	LBB34_7
LBB34_12:
	ldr	x8, [sp, #16]                   ; 8-byte Folded Reload
	add	x0, x8, #72
	sub	x1, x29, #24
	bl	__ZNSt3__16vectorIPN7sc_core18sc_signal_inout_ifIiEENS_9allocatorIS4_EEE9push_backB8ne200100ERKS4_
	ldr	x8, [sp, #16]                   ; 8-byte Folded Reload
	add	x0, x8, #72
	mov	x1, #0                          ; =0x0
	bl	__ZNSt3__16vectorIPN7sc_core18sc_signal_inout_ifIiEENS_9allocatorIS4_EEEixB8ne200100Em
	ldr	x9, [sp, #16]                   ; 8-byte Folded Reload
	ldr	x8, [x0]
	str	x8, [x9, #64]
	ldp	x29, x30, [sp, #64]             ; 16-byte Folded Reload
	add	sp, sp, #80
	ret
	.cfi_endproc
                                        ; -- End function
	.globl	__ZNK7sc_core9sc_port_bINS_18sc_signal_inout_ifIiEEE15interface_countEv ; -- Begin function _ZNK7sc_core9sc_port_bINS_18sc_signal_inout_ifIiEEE15interface_countEv
	.weak_def_can_be_hidden	__ZNK7sc_core9sc_port_bINS_18sc_signal_inout_ifIiEEE15interface_countEv
	.p2align	2
__ZNK7sc_core9sc_port_bINS_18sc_signal_inout_ifIiEEE15interface_countEv: ; @_ZNK7sc_core9sc_port_bINS_18sc_signal_inout_ifIiEEE15interface_countEv
	.cfi_startproc
; %bb.0:
	sub	sp, sp, #32
	stp	x29, x30, [sp, #16]             ; 16-byte Folded Spill
	add	x29, sp, #16
	.cfi_def_cfa w29, 16
	.cfi_offset w30, -8
	.cfi_offset w29, -16
	str	x0, [sp, #8]
	ldr	x0, [sp, #8]
	bl	__ZNK7sc_core9sc_port_bINS_18sc_signal_inout_ifIiEEE4sizeEv
	ldp	x29, x30, [sp, #16]             ; 16-byte Folded Reload
	add	sp, sp, #32
	ret
	.cfi_endproc
                                        ; -- End function
	.globl	__ZN7sc_core8sc_inoutIiE18end_of_elaborationEv ; -- Begin function _ZN7sc_core8sc_inoutIiE18end_of_elaborationEv
	.weak_def_can_be_hidden	__ZN7sc_core8sc_inoutIiE18end_of_elaborationEv
	.p2align	2
__ZN7sc_core8sc_inoutIiE18end_of_elaborationEv: ; @_ZN7sc_core8sc_inoutIiE18end_of_elaborationEv
	.cfi_startproc
; %bb.0:
	sub	sp, sp, #96
	stp	x29, x30, [sp, #80]             ; 16-byte Folded Spill
	add	x29, sp, #80
	.cfi_def_cfa w29, 16
	.cfi_offset w30, -8
	.cfi_offset w29, -16
	stur	x0, [x29, #-8]
	ldur	x8, [x29, #-8]
	str	x8, [sp, #40]                   ; 8-byte Folded Spill
	ldr	x8, [x8, #96]
	cbz	x8, LBB36_4
	b	LBB36_1
LBB36_1:
	ldr	x0, [sp, #40]                   ; 8-byte Folded Reload
	ldr	x1, [x0, #96]
	bl	__ZN7sc_core8sc_inoutIiE5writeERKi
	ldr	x8, [sp, #40]                   ; 8-byte Folded Reload
	ldr	x8, [x8, #96]
	str	x8, [sp, #32]                   ; 8-byte Folded Spill
	cbz	x8, LBB36_3
	b	LBB36_2
LBB36_2:
	ldr	x0, [sp, #32]                   ; 8-byte Folded Reload
	mov	x1, #4                          ; =0x4
	bl	__ZdlPvm
	b	LBB36_3
LBB36_3:
	ldr	x8, [sp, #40]                   ; 8-byte Folded Reload
                                        ; kill: def $x9 killed $xzr
	str	xzr, [x8, #96]
	b	LBB36_4
LBB36_4:
	ldr	x8, [sp, #40]                   ; 8-byte Folded Reload
	ldr	x8, [x8, #104]
	cbz	x8, LBB36_13
	b	LBB36_5
LBB36_5:
	stur	wzr, [x29, #-12]
	b	LBB36_6
LBB36_6:                                ; =>This Inner Loop Header: Depth=1
	ldr	x8, [sp, #40]                   ; 8-byte Folded Reload
	ldur	w9, [x29, #-12]
	str	w9, [sp, #28]                   ; 4-byte Folded Spill
	ldr	x0, [x8, #104]
	bl	__ZNKSt3__16vectorIPN7sc_core15sc_trace_paramsENS_9allocatorIS3_EEE4sizeB8ne200100Ev
	ldr	w8, [sp, #28]                   ; 4-byte Folded Reload
	mov	x9, x0
	subs	w8, w8, w9
	b.ge	LBB36_12
	b	LBB36_7
LBB36_7:                                ;   in Loop: Header=BB36_6 Depth=1
	ldr	x8, [sp, #40]                   ; 8-byte Folded Reload
	ldr	x0, [x8, #104]
	ldursw	x1, [x29, #-12]
	bl	__ZNSt3__16vectorIPN7sc_core15sc_trace_paramsENS_9allocatorIS3_EEEixB8ne200100Em
	mov	x8, x0
	ldr	x0, [sp, #40]                   ; 8-byte Folded Reload
	ldr	x8, [x8]
	stur	x8, [x29, #-24]
	ldr	x8, [x0]
	ldr	x8, [x8, #72]
	blr	x8
	str	x0, [sp, #16]                   ; 8-byte Folded Spill
	cbz	x0, LBB36_9
	b	LBB36_8
LBB36_8:                                ;   in Loop: Header=BB36_6 Depth=1
	ldr	x0, [sp, #16]                   ; 8-byte Folded Reload
	adrp	x1, __ZTIN7sc_core12sc_interfaceE@GOTPAGE
	ldr	x1, [x1, __ZTIN7sc_core12sc_interfaceE@GOTPAGEOFF]
	adrp	x2, __ZTIN7sc_core15sc_signal_in_ifIiEE@PAGE
	add	x2, x2, __ZTIN7sc_core15sc_signal_in_ifIiEE@PAGEOFF
	mov	x3, #-1                         ; =0xffffffffffffffff
	bl	___dynamic_cast
	str	x0, [sp, #8]                    ; 8-byte Folded Spill
	b	LBB36_10
LBB36_9:                                ;   in Loop: Header=BB36_6 Depth=1
	mov	x8, #0                          ; =0x0
	str	x8, [sp, #8]                    ; 8-byte Folded Spill
	b	LBB36_10
LBB36_10:                               ;   in Loop: Header=BB36_6 Depth=1
	ldr	x8, [sp, #8]                    ; 8-byte Folded Reload
	stur	x8, [x29, #-32]
	ldur	x8, [x29, #-24]
	ldr	x8, [x8]
	str	x8, [sp]                        ; 8-byte Folded Spill
	ldur	x0, [x29, #-32]
	ldr	x8, [x0]
	ldr	x8, [x8, #40]
	blr	x8
	mov	x1, x0
	ldr	x0, [sp]                        ; 8-byte Folded Reload
	ldur	x8, [x29, #-24]
	add	x2, x8, #8
	mov	w3, #32                         ; =0x20
	bl	__ZN7sc_core8sc_traceEPNS_13sc_trace_fileERKiRKNSt3__112basic_stringIcNS4_11char_traitsIcEENS4_9allocatorIcEEEEi
	b	LBB36_11
LBB36_11:                               ;   in Loop: Header=BB36_6 Depth=1
	ldur	w8, [x29, #-12]
	add	w8, w8, #1
	stur	w8, [x29, #-12]
	b	LBB36_6
LBB36_12:
	ldr	x0, [sp, #40]                   ; 8-byte Folded Reload
	bl	__ZNK7sc_core8sc_inoutIiE13remove_tracesEv
	b	LBB36_13
LBB36_13:
	ldp	x29, x30, [sp, #80]             ; 16-byte Folded Reload
	add	sp, sp, #96
	ret
	.cfi_endproc
                                        ; -- End function
	.globl	__ZNK7sc_core9sc_port_bINS_18sc_signal_inout_ifIiEEE14make_sensitiveEPNS_17sc_thread_processEPNS_15sc_event_finderE ; -- Begin function _ZNK7sc_core9sc_port_bINS_18sc_signal_inout_ifIiEEE14make_sensitiveEPNS_17sc_thread_processEPNS_15sc_event_finderE
	.weak_def_can_be_hidden	__ZNK7sc_core9sc_port_bINS_18sc_signal_inout_ifIiEEE14make_sensitiveEPNS_17sc_thread_processEPNS_15sc_event_finderE
	.p2align	2
__ZNK7sc_core9sc_port_bINS_18sc_signal_inout_ifIiEEE14make_sensitiveEPNS_17sc_thread_processEPNS_15sc_event_finderE: ; @_ZNK7sc_core9sc_port_bINS_18sc_signal_inout_ifIiEEE14make_sensitiveEPNS_17sc_thread_processEPNS_15sc_event_finderE
	.cfi_startproc
; %bb.0:
	sub	sp, sp, #80
	stp	x29, x30, [sp, #64]             ; 16-byte Folded Spill
	add	x29, sp, #64
	.cfi_def_cfa w29, 16
	.cfi_offset w30, -8
	.cfi_offset w29, -16
	stur	x0, [x29, #-8]
	stur	x1, [x29, #-16]
	stur	x2, [x29, #-24]
	ldur	x8, [x29, #-8]
	str	x8, [sp, #16]                   ; 8-byte Folded Spill
	ldr	x8, [x8, #56]
	cbnz	x8, LBB37_9
	b	LBB37_1
LBB37_1:
	ldr	x0, [sp, #16]                   ; 8-byte Folded Reload
	bl	__ZNK7sc_core9sc_port_bINS_18sc_signal_inout_ifIiEEE4sizeEv
	stur	w0, [x29, #-28]
	str	wzr, [sp, #32]
	b	LBB37_2
LBB37_2:                                ; =>This Inner Loop Header: Depth=1
	ldr	w8, [sp, #32]
	ldur	w9, [x29, #-28]
	subs	w8, w8, w9
	b.ge	LBB37_8
	b	LBB37_3
LBB37_3:                                ;   in Loop: Header=BB37_2 Depth=1
	ldr	x8, [sp, #16]                   ; 8-byte Folded Reload
	add	x0, x8, #72
	ldrsw	x1, [sp, #32]
	bl	__ZNKSt3__16vectorIPN7sc_core18sc_signal_inout_ifIiEENS_9allocatorIS4_EEEixB8ne200100Em
	ldr	x8, [x0]
	str	x8, [sp, #24]
	ldr	x8, [sp, #24]
	cbz	x8, LBB37_5
	b	LBB37_4
LBB37_4:                                ;   in Loop: Header=BB37_2 Depth=1
	b	LBB37_6
LBB37_5:
	adrp	x0, l_.str.12@PAGE
	add	x0, x0, l_.str.12@PAGEOFF
	adrp	x1, l_.str.8@PAGE
	add	x1, x1, l_.str.8@PAGEOFF
	mov	w2, #596                        ; =0x254
	bl	__ZN7sc_core19sc_assertion_failedEPKcS1_i
LBB37_6:                                ;   in Loop: Header=BB37_2 Depth=1
	ldur	x8, [x29, #-16]
	str	x8, [sp, #8]                    ; 8-byte Folded Spill
	ldr	x8, [sp, #24]
	ldr	x9, [x8]
	ldur	x9, [x9, #-48]
	add	x0, x8, x9
	ldr	x8, [x0]
	ldr	x8, [x8, #8]
	blr	x8
	ldr	x1, [sp, #8]                    ; 8-byte Folded Reload
	mov	x2, x0
	ldr	x0, [sp, #16]                   ; 8-byte Folded Reload
	bl	__ZNK7sc_core12sc_port_base16add_static_eventEPNS_17sc_thread_processERKNS_8sc_eventE
	b	LBB37_7
LBB37_7:                                ;   in Loop: Header=BB37_2 Depth=1
	ldr	w8, [sp, #32]
	add	w8, w8, #1
	str	w8, [sp, #32]
	b	LBB37_2
LBB37_8:
	b	LBB37_10
LBB37_9:
	ldr	x0, [sp, #16]                   ; 8-byte Folded Reload
	ldur	x1, [x29, #-16]
	ldur	x2, [x29, #-24]
	bl	__ZNK7sc_core12sc_port_base14make_sensitiveEPNS_17sc_thread_processEPNS_15sc_event_finderE
	b	LBB37_10
LBB37_10:
	ldp	x29, x30, [sp, #64]             ; 16-byte Folded Reload
	add	sp, sp, #80
	ret
	.cfi_endproc
                                        ; -- End function
	.globl	__ZNK7sc_core9sc_port_bINS_18sc_signal_inout_ifIiEEE14make_sensitiveEPNS_17sc_method_processEPNS_15sc_event_finderE ; -- Begin function _ZNK7sc_core9sc_port_bINS_18sc_signal_inout_ifIiEEE14make_sensitiveEPNS_17sc_method_processEPNS_15sc_event_finderE
	.weak_def_can_be_hidden	__ZNK7sc_core9sc_port_bINS_18sc_signal_inout_ifIiEEE14make_sensitiveEPNS_17sc_method_processEPNS_15sc_event_finderE
	.p2align	2
__ZNK7sc_core9sc_port_bINS_18sc_signal_inout_ifIiEEE14make_sensitiveEPNS_17sc_method_processEPNS_15sc_event_finderE: ; @_ZNK7sc_core9sc_port_bINS_18sc_signal_inout_ifIiEEE14make_sensitiveEPNS_17sc_method_processEPNS_15sc_event_finderE
	.cfi_startproc
; %bb.0:
	sub	sp, sp, #80
	stp	x29, x30, [sp, #64]             ; 16-byte Folded Spill
	add	x29, sp, #64
	.cfi_def_cfa w29, 16
	.cfi_offset w30, -8
	.cfi_offset w29, -16
	stur	x0, [x29, #-8]
	stur	x1, [x29, #-16]
	stur	x2, [x29, #-24]
	ldur	x8, [x29, #-8]
	str	x8, [sp, #16]                   ; 8-byte Folded Spill
	ldr	x8, [x8, #56]
	cbnz	x8, LBB38_9
	b	LBB38_1
LBB38_1:
	ldr	x0, [sp, #16]                   ; 8-byte Folded Reload
	bl	__ZNK7sc_core9sc_port_bINS_18sc_signal_inout_ifIiEEE4sizeEv
	stur	w0, [x29, #-28]
	str	wzr, [sp, #32]
	b	LBB38_2
LBB38_2:                                ; =>This Inner Loop Header: Depth=1
	ldr	w8, [sp, #32]
	ldur	w9, [x29, #-28]
	subs	w8, w8, w9
	b.ge	LBB38_8
	b	LBB38_3
LBB38_3:                                ;   in Loop: Header=BB38_2 Depth=1
	ldr	x8, [sp, #16]                   ; 8-byte Folded Reload
	add	x0, x8, #72
	ldrsw	x1, [sp, #32]
	bl	__ZNKSt3__16vectorIPN7sc_core18sc_signal_inout_ifIiEENS_9allocatorIS4_EEEixB8ne200100Em
	ldr	x8, [x0]
	str	x8, [sp, #24]
	ldr	x8, [sp, #24]
	cbz	x8, LBB38_5
	b	LBB38_4
LBB38_4:                                ;   in Loop: Header=BB38_2 Depth=1
	b	LBB38_6
LBB38_5:
	adrp	x0, l_.str.12@PAGE
	add	x0, x0, l_.str.12@PAGEOFF
	adrp	x1, l_.str.8@PAGE
	add	x1, x1, l_.str.8@PAGEOFF
	mov	w2, #617                        ; =0x269
	bl	__ZN7sc_core19sc_assertion_failedEPKcS1_i
LBB38_6:                                ;   in Loop: Header=BB38_2 Depth=1
	ldur	x8, [x29, #-16]
	str	x8, [sp, #8]                    ; 8-byte Folded Spill
	ldr	x8, [sp, #24]
	ldr	x9, [x8]
	ldur	x9, [x9, #-48]
	add	x0, x8, x9
	ldr	x8, [x0]
	ldr	x8, [x8, #8]
	blr	x8
	ldr	x1, [sp, #8]                    ; 8-byte Folded Reload
	mov	x2, x0
	ldr	x0, [sp, #16]                   ; 8-byte Folded Reload
	bl	__ZNK7sc_core12sc_port_base16add_static_eventEPNS_17sc_method_processERKNS_8sc_eventE
	b	LBB38_7
LBB38_7:                                ;   in Loop: Header=BB38_2 Depth=1
	ldr	w8, [sp, #32]
	add	w8, w8, #1
	str	w8, [sp, #32]
	b	LBB38_2
LBB38_8:
	b	LBB38_10
LBB38_9:
	ldr	x0, [sp, #16]                   ; 8-byte Folded Reload
	ldur	x1, [x29, #-16]
	ldur	x2, [x29, #-24]
	bl	__ZNK7sc_core12sc_port_base14make_sensitiveEPNS_17sc_method_processEPNS_15sc_event_finderE
	b	LBB38_10
LBB38_10:
	ldp	x29, x30, [sp, #64]             ; 16-byte Folded Reload
	add	sp, sp, #80
	ret
	.cfi_endproc
                                        ; -- End function
	.globl	__ZN7sc_core9sc_port_bINS_18sc_signal_inout_ifIiEEE4bindERS2_ ; -- Begin function _ZN7sc_core9sc_port_bINS_18sc_signal_inout_ifIiEEE4bindERS2_
	.weak_def_can_be_hidden	__ZN7sc_core9sc_port_bINS_18sc_signal_inout_ifIiEEE4bindERS2_
	.p2align	2
__ZN7sc_core9sc_port_bINS_18sc_signal_inout_ifIiEEE4bindERS2_: ; @_ZN7sc_core9sc_port_bINS_18sc_signal_inout_ifIiEEE4bindERS2_
	.cfi_startproc
; %bb.0:
	sub	sp, sp, #32
	stp	x29, x30, [sp, #16]             ; 16-byte Folded Spill
	add	x29, sp, #16
	.cfi_def_cfa w29, 16
	.cfi_offset w30, -8
	.cfi_offset w29, -16
	str	x0, [sp, #8]
	str	x1, [sp]
	ldr	x0, [sp, #8]
	ldr	x8, [sp]
	ldr	x9, [x8]
	ldur	x9, [x9, #-48]
	add	x1, x8, x9
	bl	__ZN7sc_core12sc_port_base4bindERNS_12sc_interfaceE
	ldp	x29, x30, [sp, #16]             ; 16-byte Folded Reload
	add	sp, sp, #32
	ret
	.cfi_endproc
                                        ; -- End function
	.globl	__ZN7sc_core9sc_port_bINS_18sc_signal_inout_ifIiEEE4bindERS3_ ; -- Begin function _ZN7sc_core9sc_port_bINS_18sc_signal_inout_ifIiEEE4bindERS3_
	.weak_def_can_be_hidden	__ZN7sc_core9sc_port_bINS_18sc_signal_inout_ifIiEEE4bindERS3_
	.p2align	2
__ZN7sc_core9sc_port_bINS_18sc_signal_inout_ifIiEEE4bindERS3_: ; @_ZN7sc_core9sc_port_bINS_18sc_signal_inout_ifIiEEE4bindERS3_
	.cfi_startproc
; %bb.0:
	sub	sp, sp, #32
	stp	x29, x30, [sp, #16]             ; 16-byte Folded Spill
	add	x29, sp, #16
	.cfi_def_cfa w29, 16
	.cfi_offset w30, -8
	.cfi_offset w29, -16
	str	x0, [sp, #8]
	str	x1, [sp]
	ldr	x0, [sp, #8]
	ldr	x1, [sp]
	bl	__ZN7sc_core12sc_port_base4bindERS0_
	ldp	x29, x30, [sp, #16]             ; 16-byte Folded Reload
	add	sp, sp, #32
	ret
	.cfi_endproc
                                        ; -- End function
	.globl	__ZN7sc_core7sc_portINS_18sc_signal_inout_ifIiEELi1ELNS_14sc_port_policyE0EEC2Ev ; -- Begin function _ZN7sc_core7sc_portINS_18sc_signal_inout_ifIiEELi1ELNS_14sc_port_policyE0EEC2Ev
	.weak_def_can_be_hidden	__ZN7sc_core7sc_portINS_18sc_signal_inout_ifIiEELi1ELNS_14sc_port_policyE0EEC2Ev
	.p2align	2
__ZN7sc_core7sc_portINS_18sc_signal_inout_ifIiEELi1ELNS_14sc_port_policyE0EEC2Ev: ; @_ZN7sc_core7sc_portINS_18sc_signal_inout_ifIiEELi1ELNS_14sc_port_policyE0EEC2Ev
	.cfi_startproc
; %bb.0:
	sub	sp, sp, #32
	stp	x29, x30, [sp, #16]             ; 16-byte Folded Spill
	add	x29, sp, #16
	.cfi_def_cfa w29, 16
	.cfi_offset w30, -8
	.cfi_offset w29, -16
	str	x0, [sp, #8]
	ldr	x0, [sp, #8]
	str	x0, [sp]                        ; 8-byte Folded Spill
	mov	w1, #1                          ; =0x1
	mov	w2, #0                          ; =0x0
	bl	__ZN7sc_core9sc_port_bINS_18sc_signal_inout_ifIiEEEC2EiNS_14sc_port_policyE
	ldr	x0, [sp]                        ; 8-byte Folded Reload
	adrp	x8, __ZTVN7sc_core7sc_portINS_18sc_signal_inout_ifIiEELi1ELNS_14sc_port_policyE0EEE@GOTPAGE
	ldr	x8, [x8, __ZTVN7sc_core7sc_portINS_18sc_signal_inout_ifIiEELi1ELNS_14sc_port_policyE0EEE@GOTPAGEOFF]
	add	x8, x8, #16
	str	x8, [x0]
	ldp	x29, x30, [sp, #16]             ; 16-byte Folded Reload
	add	sp, sp, #32
	ret
	.cfi_endproc
                                        ; -- End function
	.globl	__ZNK7sc_core8sc_inoutIiE4kindEv ; -- Begin function _ZNK7sc_core8sc_inoutIiE4kindEv
	.weak_def_can_be_hidden	__ZNK7sc_core8sc_inoutIiE4kindEv
	.p2align	2
__ZNK7sc_core8sc_inoutIiE4kindEv:       ; @_ZNK7sc_core8sc_inoutIiE4kindEv
	.cfi_startproc
; %bb.0:
	sub	sp, sp, #16
	.cfi_def_cfa_offset 16
	str	x0, [sp, #8]
	adrp	x0, l_.str.5@PAGE
	add	x0, x0, l_.str.5@PAGEOFF
	add	sp, sp, #16
	ret
	.cfi_endproc
                                        ; -- End function
	.globl	__ZN7sc_core8sc_inoutIiED1Ev    ; -- Begin function _ZN7sc_core8sc_inoutIiED1Ev
	.weak_def_can_be_hidden	__ZN7sc_core8sc_inoutIiED1Ev
	.p2align	2
__ZN7sc_core8sc_inoutIiED1Ev:           ; @_ZN7sc_core8sc_inoutIiED1Ev
	.cfi_startproc
; %bb.0:
	sub	sp, sp, #32
	stp	x29, x30, [sp, #16]             ; 16-byte Folded Spill
	add	x29, sp, #16
	.cfi_def_cfa w29, 16
	.cfi_offset w30, -8
	.cfi_offset w29, -16
	str	x0, [sp, #8]
	ldr	x0, [sp, #8]
	str	x0, [sp]                        ; 8-byte Folded Spill
	bl	__ZN7sc_core8sc_inoutIiED2Ev
	ldr	x0, [sp]                        ; 8-byte Folded Reload
	ldp	x29, x30, [sp, #16]             ; 16-byte Folded Reload
	add	sp, sp, #32
	ret
	.cfi_endproc
                                        ; -- End function
	.globl	__ZN7sc_core8sc_inoutIiED0Ev    ; -- Begin function _ZN7sc_core8sc_inoutIiED0Ev
	.weak_def_can_be_hidden	__ZN7sc_core8sc_inoutIiED0Ev
	.p2align	2
__ZN7sc_core8sc_inoutIiED0Ev:           ; @_ZN7sc_core8sc_inoutIiED0Ev
	.cfi_startproc
; %bb.0:
	sub	sp, sp, #32
	stp	x29, x30, [sp, #16]             ; 16-byte Folded Spill
	add	x29, sp, #16
	.cfi_def_cfa w29, 16
	.cfi_offset w30, -8
	.cfi_offset w29, -16
	str	x0, [sp, #8]
	ldr	x0, [sp, #8]
	str	x0, [sp]                        ; 8-byte Folded Spill
	bl	__ZN7sc_core8sc_inoutIiED1Ev
	ldr	x0, [sp]                        ; 8-byte Folded Reload
	mov	x1, #120                        ; =0x78
	bl	__ZdlPvm
	ldp	x29, x30, [sp, #16]             ; 16-byte Folded Reload
	add	sp, sp, #32
	ret
	.cfi_endproc
                                        ; -- End function
	.globl	__ZN7sc_core9sc_port_bINS_18sc_signal_inout_ifIiEEEC2EiNS_14sc_port_policyE ; -- Begin function _ZN7sc_core9sc_port_bINS_18sc_signal_inout_ifIiEEEC2EiNS_14sc_port_policyE
	.weak_def_can_be_hidden	__ZN7sc_core9sc_port_bINS_18sc_signal_inout_ifIiEEEC2EiNS_14sc_port_policyE
	.p2align	2
__ZN7sc_core9sc_port_bINS_18sc_signal_inout_ifIiEEEC2EiNS_14sc_port_policyE: ; @_ZN7sc_core9sc_port_bINS_18sc_signal_inout_ifIiEEEC2EiNS_14sc_port_policyE
	.cfi_startproc
; %bb.0:
	sub	sp, sp, #48
	stp	x29, x30, [sp, #32]             ; 16-byte Folded Spill
	add	x29, sp, #32
	.cfi_def_cfa w29, 16
	.cfi_offset w30, -8
	.cfi_offset w29, -16
	stur	x0, [x29, #-8]
	stur	w1, [x29, #-12]
	str	w2, [sp, #16]
	ldur	x0, [x29, #-8]
	str	x0, [sp, #8]                    ; 8-byte Folded Spill
	ldur	w1, [x29, #-12]
	ldr	w2, [sp, #16]
	bl	__ZN7sc_core12sc_port_baseC2EiNS_14sc_port_policyE
	ldr	x8, [sp, #8]                    ; 8-byte Folded Reload
	adrp	x9, __ZTVN7sc_core9sc_port_bINS_18sc_signal_inout_ifIiEEEE@GOTPAGE
	ldr	x9, [x9, __ZTVN7sc_core9sc_port_bINS_18sc_signal_inout_ifIiEEEE@GOTPAGEOFF]
	add	x9, x9, #16
	str	x9, [x8]
                                        ; kill: def $x9 killed $xzr
	str	xzr, [x8, #64]
	add	x0, x8, #72
	bl	__ZNSt3__16vectorIPN7sc_core18sc_signal_inout_ifIiEENS_9allocatorIS4_EEEC1B8ne200100Ev
	ldr	x0, [sp, #8]                    ; 8-byte Folded Reload
	ldp	x29, x30, [sp, #32]             ; 16-byte Folded Reload
	add	sp, sp, #48
	ret
	.cfi_endproc
                                        ; -- End function
	.globl	__ZNK7sc_core7sc_portINS_18sc_signal_inout_ifIiEELi1ELNS_14sc_port_policyE0EE4kindEv ; -- Begin function _ZNK7sc_core7sc_portINS_18sc_signal_inout_ifIiEELi1ELNS_14sc_port_policyE0EE4kindEv
	.weak_def_can_be_hidden	__ZNK7sc_core7sc_portINS_18sc_signal_inout_ifIiEELi1ELNS_14sc_port_policyE0EE4kindEv
	.p2align	2
__ZNK7sc_core7sc_portINS_18sc_signal_inout_ifIiEELi1ELNS_14sc_port_policyE0EE4kindEv: ; @_ZNK7sc_core7sc_portINS_18sc_signal_inout_ifIiEELi1ELNS_14sc_port_policyE0EE4kindEv
	.cfi_startproc
; %bb.0:
	sub	sp, sp, #16
	.cfi_def_cfa_offset 16
	str	x0, [sp, #8]
	adrp	x0, l_.str.4@PAGE
	add	x0, x0, l_.str.4@PAGEOFF
	add	sp, sp, #16
	ret
	.cfi_endproc
                                        ; -- End function
	.globl	__ZN7sc_core7sc_portINS_18sc_signal_inout_ifIiEELi1ELNS_14sc_port_policyE0EED1Ev ; -- Begin function _ZN7sc_core7sc_portINS_18sc_signal_inout_ifIiEELi1ELNS_14sc_port_policyE0EED1Ev
	.weak_def_can_be_hidden	__ZN7sc_core7sc_portINS_18sc_signal_inout_ifIiEELi1ELNS_14sc_port_policyE0EED1Ev
	.p2align	2
__ZN7sc_core7sc_portINS_18sc_signal_inout_ifIiEELi1ELNS_14sc_port_policyE0EED1Ev: ; @_ZN7sc_core7sc_portINS_18sc_signal_inout_ifIiEELi1ELNS_14sc_port_policyE0EED1Ev
	.cfi_startproc
; %bb.0:
	sub	sp, sp, #32
	stp	x29, x30, [sp, #16]             ; 16-byte Folded Spill
	add	x29, sp, #16
	.cfi_def_cfa w29, 16
	.cfi_offset w30, -8
	.cfi_offset w29, -16
	str	x0, [sp, #8]
	ldr	x0, [sp, #8]
	str	x0, [sp]                        ; 8-byte Folded Spill
	bl	__ZN7sc_core7sc_portINS_18sc_signal_inout_ifIiEELi1ELNS_14sc_port_policyE0EED2Ev
	ldr	x0, [sp]                        ; 8-byte Folded Reload
	ldp	x29, x30, [sp, #16]             ; 16-byte Folded Reload
	add	sp, sp, #32
	ret
	.cfi_endproc
                                        ; -- End function
	.globl	__ZN7sc_core7sc_portINS_18sc_signal_inout_ifIiEELi1ELNS_14sc_port_policyE0EED0Ev ; -- Begin function _ZN7sc_core7sc_portINS_18sc_signal_inout_ifIiEELi1ELNS_14sc_port_policyE0EED0Ev
	.weak_def_can_be_hidden	__ZN7sc_core7sc_portINS_18sc_signal_inout_ifIiEELi1ELNS_14sc_port_policyE0EED0Ev
	.p2align	2
__ZN7sc_core7sc_portINS_18sc_signal_inout_ifIiEELi1ELNS_14sc_port_policyE0EED0Ev: ; @_ZN7sc_core7sc_portINS_18sc_signal_inout_ifIiEELi1ELNS_14sc_port_policyE0EED0Ev
	.cfi_startproc
; %bb.0:
	sub	sp, sp, #32
	stp	x29, x30, [sp, #16]             ; 16-byte Folded Spill
	add	x29, sp, #16
	.cfi_def_cfa w29, 16
	.cfi_offset w30, -8
	.cfi_offset w29, -16
	str	x0, [sp, #8]
	ldr	x0, [sp, #8]
	str	x0, [sp]                        ; 8-byte Folded Spill
	bl	__ZN7sc_core7sc_portINS_18sc_signal_inout_ifIiEELi1ELNS_14sc_port_policyE0EED1Ev
	ldr	x0, [sp]                        ; 8-byte Folded Reload
	mov	x1, #96                         ; =0x60
	bl	__ZdlPvm
	ldp	x29, x30, [sp, #16]             ; 16-byte Folded Reload
	add	sp, sp, #32
	ret
	.cfi_endproc
                                        ; -- End function
	.private_extern	__ZNSt3__16vectorIPN7sc_core18sc_signal_inout_ifIiEENS_9allocatorIS4_EEEC1B8ne200100Ev ; -- Begin function _ZNSt3__16vectorIPN7sc_core18sc_signal_inout_ifIiEENS_9allocatorIS4_EEEC1B8ne200100Ev
	.globl	__ZNSt3__16vectorIPN7sc_core18sc_signal_inout_ifIiEENS_9allocatorIS4_EEEC1B8ne200100Ev
	.weak_def_can_be_hidden	__ZNSt3__16vectorIPN7sc_core18sc_signal_inout_ifIiEENS_9allocatorIS4_EEEC1B8ne200100Ev
	.p2align	2
__ZNSt3__16vectorIPN7sc_core18sc_signal_inout_ifIiEENS_9allocatorIS4_EEEC1B8ne200100Ev: ; @_ZNSt3__16vectorIPN7sc_core18sc_signal_inout_ifIiEENS_9allocatorIS4_EEEC1B8ne200100Ev
	.cfi_startproc
; %bb.0:
	sub	sp, sp, #32
	stp	x29, x30, [sp, #16]             ; 16-byte Folded Spill
	add	x29, sp, #16
	.cfi_def_cfa w29, 16
	.cfi_offset w30, -8
	.cfi_offset w29, -16
	str	x0, [sp, #8]
	ldr	x0, [sp, #8]
	str	x0, [sp]                        ; 8-byte Folded Spill
	bl	__ZNSt3__16vectorIPN7sc_core18sc_signal_inout_ifIiEENS_9allocatorIS4_EEEC2B8ne200100Ev
	ldr	x0, [sp]                        ; 8-byte Folded Reload
	ldp	x29, x30, [sp, #16]             ; 16-byte Folded Reload
	add	sp, sp, #32
	ret
	.cfi_endproc
                                        ; -- End function
	.globl	__ZNK7sc_core12sc_port_base4kindEv ; -- Begin function _ZNK7sc_core12sc_port_base4kindEv
	.weak_def_can_be_hidden	__ZNK7sc_core12sc_port_base4kindEv
	.p2align	2
__ZNK7sc_core12sc_port_base4kindEv:     ; @_ZNK7sc_core12sc_port_base4kindEv
	.cfi_startproc
; %bb.0:
	sub	sp, sp, #16
	.cfi_def_cfa_offset 16
	str	x0, [sp, #8]
	adrp	x0, l_.str.3@PAGE
	add	x0, x0, l_.str.3@PAGEOFF
	add	sp, sp, #16
	ret
	.cfi_endproc
                                        ; -- End function
	.globl	__ZN7sc_core9sc_port_bINS_18sc_signal_inout_ifIiEEED1Ev ; -- Begin function _ZN7sc_core9sc_port_bINS_18sc_signal_inout_ifIiEEED1Ev
	.weak_def_can_be_hidden	__ZN7sc_core9sc_port_bINS_18sc_signal_inout_ifIiEEED1Ev
	.p2align	2
__ZN7sc_core9sc_port_bINS_18sc_signal_inout_ifIiEEED1Ev: ; @_ZN7sc_core9sc_port_bINS_18sc_signal_inout_ifIiEEED1Ev
	.cfi_startproc
; %bb.0:
	sub	sp, sp, #32
	stp	x29, x30, [sp, #16]             ; 16-byte Folded Spill
	add	x29, sp, #16
	.cfi_def_cfa w29, 16
	.cfi_offset w30, -8
	.cfi_offset w29, -16
	str	x0, [sp, #8]
	ldr	x0, [sp, #8]
	str	x0, [sp]                        ; 8-byte Folded Spill
	bl	__ZN7sc_core9sc_port_bINS_18sc_signal_inout_ifIiEEED2Ev
	ldr	x0, [sp]                        ; 8-byte Folded Reload
	ldp	x29, x30, [sp, #16]             ; 16-byte Folded Reload
	add	sp, sp, #32
	ret
	.cfi_endproc
                                        ; -- End function
	.globl	__ZN7sc_core9sc_port_bINS_18sc_signal_inout_ifIiEEED0Ev ; -- Begin function _ZN7sc_core9sc_port_bINS_18sc_signal_inout_ifIiEEED0Ev
	.weak_def_can_be_hidden	__ZN7sc_core9sc_port_bINS_18sc_signal_inout_ifIiEEED0Ev
	.p2align	2
__ZN7sc_core9sc_port_bINS_18sc_signal_inout_ifIiEEED0Ev: ; @_ZN7sc_core9sc_port_bINS_18sc_signal_inout_ifIiEEED0Ev
	.cfi_startproc
; %bb.0:
	sub	sp, sp, #32
	stp	x29, x30, [sp, #16]             ; 16-byte Folded Spill
	add	x29, sp, #16
	.cfi_def_cfa w29, 16
	.cfi_offset w30, -8
	.cfi_offset w29, -16
	str	x0, [sp, #8]
	ldr	x0, [sp, #8]
	str	x0, [sp]                        ; 8-byte Folded Spill
	bl	__ZN7sc_core9sc_port_bINS_18sc_signal_inout_ifIiEEED1Ev
	ldr	x0, [sp]                        ; 8-byte Folded Reload
	mov	x1, #96                         ; =0x60
	bl	__ZdlPvm
	ldp	x29, x30, [sp, #16]             ; 16-byte Folded Reload
	add	sp, sp, #32
	ret
	.cfi_endproc
                                        ; -- End function
	.private_extern	__ZNSt3__16vectorIPN7sc_core18sc_signal_inout_ifIiEENS_9allocatorIS4_EEEC2B8ne200100Ev ; -- Begin function _ZNSt3__16vectorIPN7sc_core18sc_signal_inout_ifIiEENS_9allocatorIS4_EEEC2B8ne200100Ev
	.globl	__ZNSt3__16vectorIPN7sc_core18sc_signal_inout_ifIiEENS_9allocatorIS4_EEEC2B8ne200100Ev
	.weak_def_can_be_hidden	__ZNSt3__16vectorIPN7sc_core18sc_signal_inout_ifIiEENS_9allocatorIS4_EEEC2B8ne200100Ev
	.p2align	2
__ZNSt3__16vectorIPN7sc_core18sc_signal_inout_ifIiEENS_9allocatorIS4_EEEC2B8ne200100Ev: ; @_ZNSt3__16vectorIPN7sc_core18sc_signal_inout_ifIiEENS_9allocatorIS4_EEEC2B8ne200100Ev
	.cfi_startproc
; %bb.0:
	sub	sp, sp, #32
	stp	x29, x30, [sp, #16]             ; 16-byte Folded Spill
	add	x29, sp, #16
	.cfi_def_cfa w29, 16
	.cfi_offset w30, -8
	.cfi_offset w29, -16
	str	x0, [sp, #8]
	ldr	x0, [sp, #8]
	str	x0, [sp]                        ; 8-byte Folded Spill
                                        ; kill: def $x8 killed $xzr
	str	xzr, [x0]
	str	xzr, [x0, #8]
	str	xzr, [x0, #16]
	bl	__ZNSt3__19allocatorIPN7sc_core18sc_signal_inout_ifIiEEEC1B8ne200100Ev
	ldr	x0, [sp]                        ; 8-byte Folded Reload
	ldp	x29, x30, [sp, #16]             ; 16-byte Folded Reload
	add	sp, sp, #32
	ret
	.cfi_endproc
                                        ; -- End function
	.private_extern	__ZNSt3__19allocatorIPN7sc_core18sc_signal_inout_ifIiEEEC1B8ne200100Ev ; -- Begin function _ZNSt3__19allocatorIPN7sc_core18sc_signal_inout_ifIiEEEC1B8ne200100Ev
	.globl	__ZNSt3__19allocatorIPN7sc_core18sc_signal_inout_ifIiEEEC1B8ne200100Ev
	.weak_def_can_be_hidden	__ZNSt3__19allocatorIPN7sc_core18sc_signal_inout_ifIiEEEC1B8ne200100Ev
	.p2align	2
__ZNSt3__19allocatorIPN7sc_core18sc_signal_inout_ifIiEEEC1B8ne200100Ev: ; @_ZNSt3__19allocatorIPN7sc_core18sc_signal_inout_ifIiEEEC1B8ne200100Ev
	.cfi_startproc
; %bb.0:
	sub	sp, sp, #32
	stp	x29, x30, [sp, #16]             ; 16-byte Folded Spill
	add	x29, sp, #16
	.cfi_def_cfa w29, 16
	.cfi_offset w30, -8
	.cfi_offset w29, -16
	str	x0, [sp, #8]
	ldr	x0, [sp, #8]
	str	x0, [sp]                        ; 8-byte Folded Spill
	bl	__ZNSt3__19allocatorIPN7sc_core18sc_signal_inout_ifIiEEEC2B8ne200100Ev
	ldr	x0, [sp]                        ; 8-byte Folded Reload
	ldp	x29, x30, [sp, #16]             ; 16-byte Folded Reload
	add	sp, sp, #32
	ret
	.cfi_endproc
                                        ; -- End function
	.private_extern	__ZNSt3__19allocatorIPN7sc_core18sc_signal_inout_ifIiEEEC2B8ne200100Ev ; -- Begin function _ZNSt3__19allocatorIPN7sc_core18sc_signal_inout_ifIiEEEC2B8ne200100Ev
	.globl	__ZNSt3__19allocatorIPN7sc_core18sc_signal_inout_ifIiEEEC2B8ne200100Ev
	.weak_def_can_be_hidden	__ZNSt3__19allocatorIPN7sc_core18sc_signal_inout_ifIiEEEC2B8ne200100Ev
	.p2align	2
__ZNSt3__19allocatorIPN7sc_core18sc_signal_inout_ifIiEEEC2B8ne200100Ev: ; @_ZNSt3__19allocatorIPN7sc_core18sc_signal_inout_ifIiEEEC2B8ne200100Ev
	.cfi_startproc
; %bb.0:
	sub	sp, sp, #32
	stp	x29, x30, [sp, #16]             ; 16-byte Folded Spill
	add	x29, sp, #16
	.cfi_def_cfa w29, 16
	.cfi_offset w30, -8
	.cfi_offset w29, -16
	str	x0, [sp, #8]
	ldr	x0, [sp, #8]
	str	x0, [sp]                        ; 8-byte Folded Spill
	bl	__ZNSt3__116__non_trivial_ifILb1ENS_9allocatorIPN7sc_core18sc_signal_inout_ifIiEEEEEC2B8ne200100Ev
	ldr	x0, [sp]                        ; 8-byte Folded Reload
	ldp	x29, x30, [sp, #16]             ; 16-byte Folded Reload
	add	sp, sp, #32
	ret
	.cfi_endproc
                                        ; -- End function
	.private_extern	__ZNSt3__116__non_trivial_ifILb1ENS_9allocatorIPN7sc_core18sc_signal_inout_ifIiEEEEEC2B8ne200100Ev ; -- Begin function _ZNSt3__116__non_trivial_ifILb1ENS_9allocatorIPN7sc_core18sc_signal_inout_ifIiEEEEEC2B8ne200100Ev
	.globl	__ZNSt3__116__non_trivial_ifILb1ENS_9allocatorIPN7sc_core18sc_signal_inout_ifIiEEEEEC2B8ne200100Ev
	.weak_def_can_be_hidden	__ZNSt3__116__non_trivial_ifILb1ENS_9allocatorIPN7sc_core18sc_signal_inout_ifIiEEEEEC2B8ne200100Ev
	.p2align	2
__ZNSt3__116__non_trivial_ifILb1ENS_9allocatorIPN7sc_core18sc_signal_inout_ifIiEEEEEC2B8ne200100Ev: ; @_ZNSt3__116__non_trivial_ifILb1ENS_9allocatorIPN7sc_core18sc_signal_inout_ifIiEEEEEC2B8ne200100Ev
	.cfi_startproc
; %bb.0:
	sub	sp, sp, #16
	.cfi_def_cfa_offset 16
	str	x0, [sp, #8]
	ldr	x0, [sp, #8]
	add	sp, sp, #16
	ret
	.cfi_endproc
                                        ; -- End function
	.globl	__ZN7sc_core9sc_port_bINS_18sc_signal_inout_ifIiEEED2Ev ; -- Begin function _ZN7sc_core9sc_port_bINS_18sc_signal_inout_ifIiEEED2Ev
	.weak_def_can_be_hidden	__ZN7sc_core9sc_port_bINS_18sc_signal_inout_ifIiEEED2Ev
	.p2align	2
__ZN7sc_core9sc_port_bINS_18sc_signal_inout_ifIiEEED2Ev: ; @_ZN7sc_core9sc_port_bINS_18sc_signal_inout_ifIiEEED2Ev
	.cfi_startproc
; %bb.0:
	sub	sp, sp, #32
	stp	x29, x30, [sp, #16]             ; 16-byte Folded Spill
	add	x29, sp, #16
	.cfi_def_cfa w29, 16
	.cfi_offset w30, -8
	.cfi_offset w29, -16
	str	x0, [sp, #8]
	ldr	x8, [sp, #8]
	str	x8, [sp]                        ; 8-byte Folded Spill
	adrp	x9, __ZTVN7sc_core9sc_port_bINS_18sc_signal_inout_ifIiEEEE@GOTPAGE
	ldr	x9, [x9, __ZTVN7sc_core9sc_port_bINS_18sc_signal_inout_ifIiEEEE@GOTPAGEOFF]
	add	x9, x9, #16
	str	x9, [x8]
	add	x0, x8, #72
	bl	__ZNSt3__16vectorIPN7sc_core18sc_signal_inout_ifIiEENS_9allocatorIS4_EEED1B8ne200100Ev
	ldr	x0, [sp]                        ; 8-byte Folded Reload
	bl	__ZN7sc_core12sc_port_baseD2Ev
	ldr	x0, [sp]                        ; 8-byte Folded Reload
	ldp	x29, x30, [sp, #16]             ; 16-byte Folded Reload
	add	sp, sp, #32
	ret
	.cfi_endproc
                                        ; -- End function
	.private_extern	__ZNSt3__16vectorIPN7sc_core18sc_signal_inout_ifIiEENS_9allocatorIS4_EEED1B8ne200100Ev ; -- Begin function _ZNSt3__16vectorIPN7sc_core18sc_signal_inout_ifIiEENS_9allocatorIS4_EEED1B8ne200100Ev
	.globl	__ZNSt3__16vectorIPN7sc_core18sc_signal_inout_ifIiEENS_9allocatorIS4_EEED1B8ne200100Ev
	.weak_def_can_be_hidden	__ZNSt3__16vectorIPN7sc_core18sc_signal_inout_ifIiEENS_9allocatorIS4_EEED1B8ne200100Ev
	.p2align	2
__ZNSt3__16vectorIPN7sc_core18sc_signal_inout_ifIiEENS_9allocatorIS4_EEED1B8ne200100Ev: ; @_ZNSt3__16vectorIPN7sc_core18sc_signal_inout_ifIiEENS_9allocatorIS4_EEED1B8ne200100Ev
	.cfi_startproc
; %bb.0:
	sub	sp, sp, #32
	stp	x29, x30, [sp, #16]             ; 16-byte Folded Spill
	add	x29, sp, #16
	.cfi_def_cfa w29, 16
	.cfi_offset w30, -8
	.cfi_offset w29, -16
	str	x0, [sp, #8]
	ldr	x0, [sp, #8]
	str	x0, [sp]                        ; 8-byte Folded Spill
	bl	__ZNSt3__16vectorIPN7sc_core18sc_signal_inout_ifIiEENS_9allocatorIS4_EEED2B8ne200100Ev
	ldr	x0, [sp]                        ; 8-byte Folded Reload
	ldp	x29, x30, [sp, #16]             ; 16-byte Folded Reload
	add	sp, sp, #32
	ret
	.cfi_endproc
                                        ; -- End function
	.private_extern	__ZNSt3__16vectorIPN7sc_core18sc_signal_inout_ifIiEENS_9allocatorIS4_EEED2B8ne200100Ev ; -- Begin function _ZNSt3__16vectorIPN7sc_core18sc_signal_inout_ifIiEENS_9allocatorIS4_EEED2B8ne200100Ev
	.globl	__ZNSt3__16vectorIPN7sc_core18sc_signal_inout_ifIiEENS_9allocatorIS4_EEED2B8ne200100Ev
	.weak_def_can_be_hidden	__ZNSt3__16vectorIPN7sc_core18sc_signal_inout_ifIiEENS_9allocatorIS4_EEED2B8ne200100Ev
	.p2align	2
__ZNSt3__16vectorIPN7sc_core18sc_signal_inout_ifIiEENS_9allocatorIS4_EEED2B8ne200100Ev: ; @_ZNSt3__16vectorIPN7sc_core18sc_signal_inout_ifIiEENS_9allocatorIS4_EEED2B8ne200100Ev
Lfunc_begin4:
	.cfi_startproc
	.cfi_personality 155, ___gxx_personality_v0
	.cfi_lsda 16, Lexception4
; %bb.0:
	sub	sp, sp, #48
	stp	x29, x30, [sp, #32]             ; 16-byte Folded Spill
	add	x29, sp, #32
	.cfi_def_cfa w29, 16
	.cfi_offset w30, -8
	.cfi_offset w29, -16
	stur	x0, [x29, #-8]
	ldur	x1, [x29, #-8]
	str	x1, [sp, #8]                    ; 8-byte Folded Spill
Ltmp70:
	add	x0, sp, #16
	bl	__ZNSt3__16vectorIPN7sc_core18sc_signal_inout_ifIiEENS_9allocatorIS4_EEE16__destroy_vectorC1B8ne200100ERS7_
Ltmp71:
	b	LBB59_1
LBB59_1:
Ltmp72:
	add	x0, sp, #16
	bl	__ZNSt3__16vectorIPN7sc_core18sc_signal_inout_ifIiEENS_9allocatorIS4_EEE16__destroy_vectorclB8ne200100Ev
Ltmp73:
	b	LBB59_2
LBB59_2:
	ldr	x0, [sp, #8]                    ; 8-byte Folded Reload
	ldp	x29, x30, [sp, #32]             ; 16-byte Folded Reload
	add	sp, sp, #48
	ret
LBB59_3:
Ltmp74:
	bl	___clang_call_terminate
Lfunc_end4:
	.cfi_endproc
	.section	__TEXT,__gcc_except_tab
	.p2align	2, 0x0
GCC_except_table59:
Lexception4:
	.byte	255                             ; @LPStart Encoding = omit
	.byte	155                             ; @TType Encoding = indirect pcrel sdata4
	.uleb128 Lttbase1-Lttbaseref1
Lttbaseref1:
	.byte	1                               ; Call site Encoding = uleb128
	.uleb128 Lcst_end4-Lcst_begin4
Lcst_begin4:
	.uleb128 Ltmp70-Lfunc_begin4            ; >> Call Site 1 <<
	.uleb128 Ltmp73-Ltmp70                  ;   Call between Ltmp70 and Ltmp73
	.uleb128 Ltmp74-Lfunc_begin4            ;     jumps to Ltmp74
	.byte	1                               ;   On action: 1
Lcst_end4:
	.byte	1                               ; >> Action Record 1 <<
                                        ;   Catch TypeInfo 1
	.byte	0                               ;   No further actions
	.p2align	2, 0x0
                                        ; >> Catch TypeInfos <<
	.long	0                               ; TypeInfo 1
Lttbase1:
	.p2align	2, 0x0
                                        ; -- End function
	.section	__TEXT,__text,regular,pure_instructions
	.private_extern	__ZNSt3__16vectorIPN7sc_core18sc_signal_inout_ifIiEENS_9allocatorIS4_EEE16__destroy_vectorC1B8ne200100ERS7_ ; -- Begin function _ZNSt3__16vectorIPN7sc_core18sc_signal_inout_ifIiEENS_9allocatorIS4_EEE16__destroy_vectorC1B8ne200100ERS7_
	.globl	__ZNSt3__16vectorIPN7sc_core18sc_signal_inout_ifIiEENS_9allocatorIS4_EEE16__destroy_vectorC1B8ne200100ERS7_
	.weak_def_can_be_hidden	__ZNSt3__16vectorIPN7sc_core18sc_signal_inout_ifIiEENS_9allocatorIS4_EEE16__destroy_vectorC1B8ne200100ERS7_
	.p2align	2
__ZNSt3__16vectorIPN7sc_core18sc_signal_inout_ifIiEENS_9allocatorIS4_EEE16__destroy_vectorC1B8ne200100ERS7_: ; @_ZNSt3__16vectorIPN7sc_core18sc_signal_inout_ifIiEENS_9allocatorIS4_EEE16__destroy_vectorC1B8ne200100ERS7_
	.cfi_startproc
; %bb.0:
	sub	sp, sp, #48
	stp	x29, x30, [sp, #32]             ; 16-byte Folded Spill
	add	x29, sp, #32
	.cfi_def_cfa w29, 16
	.cfi_offset w30, -8
	.cfi_offset w29, -16
	stur	x0, [x29, #-8]
	str	x1, [sp, #16]
	ldur	x0, [x29, #-8]
	str	x0, [sp, #8]                    ; 8-byte Folded Spill
	ldr	x1, [sp, #16]
	bl	__ZNSt3__16vectorIPN7sc_core18sc_signal_inout_ifIiEENS_9allocatorIS4_EEE16__destroy_vectorC2B8ne200100ERS7_
	ldr	x0, [sp, #8]                    ; 8-byte Folded Reload
	ldp	x29, x30, [sp, #32]             ; 16-byte Folded Reload
	add	sp, sp, #48
	ret
	.cfi_endproc
                                        ; -- End function
	.private_extern	__ZNSt3__16vectorIPN7sc_core18sc_signal_inout_ifIiEENS_9allocatorIS4_EEE16__destroy_vectorclB8ne200100Ev ; -- Begin function _ZNSt3__16vectorIPN7sc_core18sc_signal_inout_ifIiEENS_9allocatorIS4_EEE16__destroy_vectorclB8ne200100Ev
	.globl	__ZNSt3__16vectorIPN7sc_core18sc_signal_inout_ifIiEENS_9allocatorIS4_EEE16__destroy_vectorclB8ne200100Ev
	.weak_definition	__ZNSt3__16vectorIPN7sc_core18sc_signal_inout_ifIiEENS_9allocatorIS4_EEE16__destroy_vectorclB8ne200100Ev
	.p2align	2
__ZNSt3__16vectorIPN7sc_core18sc_signal_inout_ifIiEENS_9allocatorIS4_EEE16__destroy_vectorclB8ne200100Ev: ; @_ZNSt3__16vectorIPN7sc_core18sc_signal_inout_ifIiEENS_9allocatorIS4_EEE16__destroy_vectorclB8ne200100Ev
	.cfi_startproc
; %bb.0:
	sub	sp, sp, #48
	stp	x29, x30, [sp, #32]             ; 16-byte Folded Spill
	add	x29, sp, #32
	.cfi_def_cfa w29, 16
	.cfi_offset w30, -8
	.cfi_offset w29, -16
	stur	x0, [x29, #-8]
	ldur	x8, [x29, #-8]
	str	x8, [sp, #16]                   ; 8-byte Folded Spill
	ldr	x8, [x8]
	ldr	x8, [x8]
	cbz	x8, LBB61_2
	b	LBB61_1
LBB61_1:
	ldr	x8, [sp, #16]                   ; 8-byte Folded Reload
	ldr	x0, [x8]
	bl	__ZNSt3__16vectorIPN7sc_core18sc_signal_inout_ifIiEENS_9allocatorIS4_EEE5clearB8ne200100Ev
	ldr	x8, [sp, #16]                   ; 8-byte Folded Reload
	ldr	x0, [x8]
	bl	__ZNKSt3__16vectorIPN7sc_core18sc_signal_inout_ifIiEENS_9allocatorIS4_EEE17__annotate_deleteB8ne200100Ev
	ldr	x8, [sp, #16]                   ; 8-byte Folded Reload
	ldr	x9, [x8]
	str	x9, [sp, #8]                    ; 8-byte Folded Spill
	ldr	x9, [x8]
	ldr	x9, [x9]
	str	x9, [sp]                        ; 8-byte Folded Spill
	ldr	x0, [x8]
	bl	__ZNKSt3__16vectorIPN7sc_core18sc_signal_inout_ifIiEENS_9allocatorIS4_EEE8capacityB8ne200100Ev
	ldr	x1, [sp]                        ; 8-byte Folded Reload
	mov	x2, x0
	ldr	x0, [sp, #8]                    ; 8-byte Folded Reload
	bl	__ZNSt3__116allocator_traitsINS_9allocatorIPN7sc_core18sc_signal_inout_ifIiEEEEE10deallocateB8ne200100ERS6_PS5_m
	b	LBB61_2
LBB61_2:
	ldp	x29, x30, [sp, #32]             ; 16-byte Folded Reload
	add	sp, sp, #48
	ret
	.cfi_endproc
                                        ; -- End function
	.private_extern	__ZNSt3__16vectorIPN7sc_core18sc_signal_inout_ifIiEENS_9allocatorIS4_EEE16__destroy_vectorC2B8ne200100ERS7_ ; -- Begin function _ZNSt3__16vectorIPN7sc_core18sc_signal_inout_ifIiEENS_9allocatorIS4_EEE16__destroy_vectorC2B8ne200100ERS7_
	.globl	__ZNSt3__16vectorIPN7sc_core18sc_signal_inout_ifIiEENS_9allocatorIS4_EEE16__destroy_vectorC2B8ne200100ERS7_
	.weak_def_can_be_hidden	__ZNSt3__16vectorIPN7sc_core18sc_signal_inout_ifIiEENS_9allocatorIS4_EEE16__destroy_vectorC2B8ne200100ERS7_
	.p2align	2
__ZNSt3__16vectorIPN7sc_core18sc_signal_inout_ifIiEENS_9allocatorIS4_EEE16__destroy_vectorC2B8ne200100ERS7_: ; @_ZNSt3__16vectorIPN7sc_core18sc_signal_inout_ifIiEENS_9allocatorIS4_EEE16__destroy_vectorC2B8ne200100ERS7_
	.cfi_startproc
; %bb.0:
	sub	sp, sp, #16
	.cfi_def_cfa_offset 16
	str	x0, [sp, #8]
	str	x1, [sp]
	ldr	x0, [sp, #8]
	ldr	x8, [sp]
	str	x8, [x0]
	add	sp, sp, #16
	ret
	.cfi_endproc
                                        ; -- End function
	.private_extern	__ZNSt3__16vectorIPN7sc_core18sc_signal_inout_ifIiEENS_9allocatorIS4_EEE5clearB8ne200100Ev ; -- Begin function _ZNSt3__16vectorIPN7sc_core18sc_signal_inout_ifIiEENS_9allocatorIS4_EEE5clearB8ne200100Ev
	.globl	__ZNSt3__16vectorIPN7sc_core18sc_signal_inout_ifIiEENS_9allocatorIS4_EEE5clearB8ne200100Ev
	.weak_definition	__ZNSt3__16vectorIPN7sc_core18sc_signal_inout_ifIiEENS_9allocatorIS4_EEE5clearB8ne200100Ev
	.p2align	2
__ZNSt3__16vectorIPN7sc_core18sc_signal_inout_ifIiEENS_9allocatorIS4_EEE5clearB8ne200100Ev: ; @_ZNSt3__16vectorIPN7sc_core18sc_signal_inout_ifIiEENS_9allocatorIS4_EEE5clearB8ne200100Ev
	.cfi_startproc
; %bb.0:
	sub	sp, sp, #48
	stp	x29, x30, [sp, #32]             ; 16-byte Folded Spill
	add	x29, sp, #32
	.cfi_def_cfa w29, 16
	.cfi_offset w30, -8
	.cfi_offset w29, -16
	stur	x0, [x29, #-8]
	ldur	x0, [x29, #-8]
	str	x0, [sp, #8]                    ; 8-byte Folded Spill
	bl	__ZNKSt3__16vectorIPN7sc_core18sc_signal_inout_ifIiEENS_9allocatorIS4_EEE4sizeB8ne200100Ev
	mov	x8, x0
	ldr	x0, [sp, #8]                    ; 8-byte Folded Reload
	str	x8, [sp, #16]
	ldr	x1, [x0]
	bl	__ZNSt3__16vectorIPN7sc_core18sc_signal_inout_ifIiEENS_9allocatorIS4_EEE22__base_destruct_at_endB8ne200100EPS4_
	ldr	x0, [sp, #8]                    ; 8-byte Folded Reload
	ldr	x1, [sp, #16]
	bl	__ZNKSt3__16vectorIPN7sc_core18sc_signal_inout_ifIiEENS_9allocatorIS4_EEE17__annotate_shrinkB8ne200100Em
	ldp	x29, x30, [sp, #32]             ; 16-byte Folded Reload
	add	sp, sp, #48
	ret
	.cfi_endproc
                                        ; -- End function
	.private_extern	__ZNKSt3__16vectorIPN7sc_core18sc_signal_inout_ifIiEENS_9allocatorIS4_EEE17__annotate_deleteB8ne200100Ev ; -- Begin function _ZNKSt3__16vectorIPN7sc_core18sc_signal_inout_ifIiEENS_9allocatorIS4_EEE17__annotate_deleteB8ne200100Ev
	.globl	__ZNKSt3__16vectorIPN7sc_core18sc_signal_inout_ifIiEENS_9allocatorIS4_EEE17__annotate_deleteB8ne200100Ev
	.weak_definition	__ZNKSt3__16vectorIPN7sc_core18sc_signal_inout_ifIiEENS_9allocatorIS4_EEE17__annotate_deleteB8ne200100Ev
	.p2align	2
__ZNKSt3__16vectorIPN7sc_core18sc_signal_inout_ifIiEENS_9allocatorIS4_EEE17__annotate_deleteB8ne200100Ev: ; @_ZNKSt3__16vectorIPN7sc_core18sc_signal_inout_ifIiEENS_9allocatorIS4_EEE17__annotate_deleteB8ne200100Ev
	.cfi_startproc
; %bb.0:
	sub	sp, sp, #16
	.cfi_def_cfa_offset 16
	str	x0, [sp, #8]
	add	sp, sp, #16
	ret
	.cfi_endproc
                                        ; -- End function
	.private_extern	__ZNSt3__116allocator_traitsINS_9allocatorIPN7sc_core18sc_signal_inout_ifIiEEEEE10deallocateB8ne200100ERS6_PS5_m ; -- Begin function _ZNSt3__116allocator_traitsINS_9allocatorIPN7sc_core18sc_signal_inout_ifIiEEEEE10deallocateB8ne200100ERS6_PS5_m
	.globl	__ZNSt3__116allocator_traitsINS_9allocatorIPN7sc_core18sc_signal_inout_ifIiEEEEE10deallocateB8ne200100ERS6_PS5_m
	.weak_definition	__ZNSt3__116allocator_traitsINS_9allocatorIPN7sc_core18sc_signal_inout_ifIiEEEEE10deallocateB8ne200100ERS6_PS5_m
	.p2align	2
__ZNSt3__116allocator_traitsINS_9allocatorIPN7sc_core18sc_signal_inout_ifIiEEEEE10deallocateB8ne200100ERS6_PS5_m: ; @_ZNSt3__116allocator_traitsINS_9allocatorIPN7sc_core18sc_signal_inout_ifIiEEEEE10deallocateB8ne200100ERS6_PS5_m
	.cfi_startproc
; %bb.0:
	sub	sp, sp, #48
	stp	x29, x30, [sp, #32]             ; 16-byte Folded Spill
	add	x29, sp, #32
	.cfi_def_cfa w29, 16
	.cfi_offset w30, -8
	.cfi_offset w29, -16
	stur	x0, [x29, #-8]
	str	x1, [sp, #16]
	str	x2, [sp, #8]
	ldur	x0, [x29, #-8]
	ldr	x1, [sp, #16]
	ldr	x2, [sp, #8]
	bl	__ZNSt3__19allocatorIPN7sc_core18sc_signal_inout_ifIiEEE10deallocateB8ne200100EPS4_m
	ldp	x29, x30, [sp, #32]             ; 16-byte Folded Reload
	add	sp, sp, #48
	ret
	.cfi_endproc
                                        ; -- End function
	.private_extern	__ZNKSt3__16vectorIPN7sc_core18sc_signal_inout_ifIiEENS_9allocatorIS4_EEE8capacityB8ne200100Ev ; -- Begin function _ZNKSt3__16vectorIPN7sc_core18sc_signal_inout_ifIiEENS_9allocatorIS4_EEE8capacityB8ne200100Ev
	.globl	__ZNKSt3__16vectorIPN7sc_core18sc_signal_inout_ifIiEENS_9allocatorIS4_EEE8capacityB8ne200100Ev
	.weak_definition	__ZNKSt3__16vectorIPN7sc_core18sc_signal_inout_ifIiEENS_9allocatorIS4_EEE8capacityB8ne200100Ev
	.p2align	2
__ZNKSt3__16vectorIPN7sc_core18sc_signal_inout_ifIiEENS_9allocatorIS4_EEE8capacityB8ne200100Ev: ; @_ZNKSt3__16vectorIPN7sc_core18sc_signal_inout_ifIiEENS_9allocatorIS4_EEE8capacityB8ne200100Ev
	.cfi_startproc
; %bb.0:
	sub	sp, sp, #16
	.cfi_def_cfa_offset 16
	str	x0, [sp, #8]
	ldr	x9, [sp, #8]
	ldr	x8, [x9, #16]
	ldr	x9, [x9]
	subs	x8, x8, x9
	mov	x9, #8                          ; =0x8
	sdiv	x0, x8, x9
	add	sp, sp, #16
	ret
	.cfi_endproc
                                        ; -- End function
	.private_extern	__ZNKSt3__16vectorIPN7sc_core18sc_signal_inout_ifIiEENS_9allocatorIS4_EEE4sizeB8ne200100Ev ; -- Begin function _ZNKSt3__16vectorIPN7sc_core18sc_signal_inout_ifIiEENS_9allocatorIS4_EEE4sizeB8ne200100Ev
	.globl	__ZNKSt3__16vectorIPN7sc_core18sc_signal_inout_ifIiEENS_9allocatorIS4_EEE4sizeB8ne200100Ev
	.weak_definition	__ZNKSt3__16vectorIPN7sc_core18sc_signal_inout_ifIiEENS_9allocatorIS4_EEE4sizeB8ne200100Ev
	.p2align	2
__ZNKSt3__16vectorIPN7sc_core18sc_signal_inout_ifIiEENS_9allocatorIS4_EEE4sizeB8ne200100Ev: ; @_ZNKSt3__16vectorIPN7sc_core18sc_signal_inout_ifIiEENS_9allocatorIS4_EEE4sizeB8ne200100Ev
	.cfi_startproc
; %bb.0:
	sub	sp, sp, #16
	.cfi_def_cfa_offset 16
	str	x0, [sp, #8]
	ldr	x9, [sp, #8]
	ldr	x8, [x9, #8]
	ldr	x9, [x9]
	subs	x8, x8, x9
	mov	x9, #8                          ; =0x8
	sdiv	x0, x8, x9
	add	sp, sp, #16
	ret
	.cfi_endproc
                                        ; -- End function
	.private_extern	__ZNSt3__16vectorIPN7sc_core18sc_signal_inout_ifIiEENS_9allocatorIS4_EEE22__base_destruct_at_endB8ne200100EPS4_ ; -- Begin function _ZNSt3__16vectorIPN7sc_core18sc_signal_inout_ifIiEENS_9allocatorIS4_EEE22__base_destruct_at_endB8ne200100EPS4_
	.globl	__ZNSt3__16vectorIPN7sc_core18sc_signal_inout_ifIiEENS_9allocatorIS4_EEE22__base_destruct_at_endB8ne200100EPS4_
	.weak_definition	__ZNSt3__16vectorIPN7sc_core18sc_signal_inout_ifIiEENS_9allocatorIS4_EEE22__base_destruct_at_endB8ne200100EPS4_
	.p2align	2
__ZNSt3__16vectorIPN7sc_core18sc_signal_inout_ifIiEENS_9allocatorIS4_EEE22__base_destruct_at_endB8ne200100EPS4_: ; @_ZNSt3__16vectorIPN7sc_core18sc_signal_inout_ifIiEENS_9allocatorIS4_EEE22__base_destruct_at_endB8ne200100EPS4_
Lfunc_begin5:
	.cfi_startproc
	.cfi_personality 155, ___gxx_personality_v0
	.cfi_lsda 16, Lexception5
; %bb.0:
	sub	sp, sp, #48
	stp	x29, x30, [sp, #32]             ; 16-byte Folded Spill
	add	x29, sp, #32
	.cfi_def_cfa w29, 16
	.cfi_offset w30, -8
	.cfi_offset w29, -16
	stur	x0, [x29, #-8]
	str	x1, [sp, #16]
	ldur	x8, [x29, #-8]
	str	x8, [sp]                        ; 8-byte Folded Spill
	ldr	x8, [x8, #8]
	str	x8, [sp, #8]
	b	LBB68_1
LBB68_1:                                ; =>This Inner Loop Header: Depth=1
	ldr	x8, [sp, #16]
	ldr	x9, [sp, #8]
	subs	x8, x8, x9
	b.eq	LBB68_4
	b	LBB68_2
LBB68_2:                                ;   in Loop: Header=BB68_1 Depth=1
	ldr	x8, [sp, #8]
	subs	x0, x8, #8
	str	x0, [sp, #8]
	bl	__ZNSt3__112__to_addressB8ne200100IPN7sc_core18sc_signal_inout_ifIiEEEEPT_S6_
	mov	x1, x0
	ldr	x0, [sp]                        ; 8-byte Folded Reload
Ltmp79:
	bl	__ZNSt3__116allocator_traitsINS_9allocatorIPN7sc_core18sc_signal_inout_ifIiEEEEE7destroyB8ne200100IS5_TnNS_9enable_ifIXsr13__has_destroyIS6_PT_EE5valueEiE4typeELi0EEEvRS6_SB_
Ltmp80:
	b	LBB68_3
LBB68_3:                                ;   in Loop: Header=BB68_1 Depth=1
	b	LBB68_1
LBB68_4:
	ldr	x9, [sp]                        ; 8-byte Folded Reload
	ldr	x8, [sp, #16]
	str	x8, [x9, #8]
	ldp	x29, x30, [sp, #32]             ; 16-byte Folded Reload
	add	sp, sp, #48
	ret
LBB68_5:
Ltmp81:
	bl	___clang_call_terminate
Lfunc_end5:
	.cfi_endproc
	.section	__TEXT,__gcc_except_tab
	.p2align	2, 0x0
GCC_except_table68:
Lexception5:
	.byte	255                             ; @LPStart Encoding = omit
	.byte	155                             ; @TType Encoding = indirect pcrel sdata4
	.uleb128 Lttbase2-Lttbaseref2
Lttbaseref2:
	.byte	1                               ; Call site Encoding = uleb128
	.uleb128 Lcst_end5-Lcst_begin5
Lcst_begin5:
	.uleb128 Ltmp79-Lfunc_begin5            ; >> Call Site 1 <<
	.uleb128 Ltmp80-Ltmp79                  ;   Call between Ltmp79 and Ltmp80
	.uleb128 Ltmp81-Lfunc_begin5            ;     jumps to Ltmp81
	.byte	1                               ;   On action: 1
Lcst_end5:
	.byte	1                               ; >> Action Record 1 <<
                                        ;   Catch TypeInfo 1
	.byte	0                               ;   No further actions
	.p2align	2, 0x0
                                        ; >> Catch TypeInfos <<
	.long	0                               ; TypeInfo 1
Lttbase2:
	.p2align	2, 0x0
                                        ; -- End function
	.section	__TEXT,__text,regular,pure_instructions
	.private_extern	__ZNKSt3__16vectorIPN7sc_core18sc_signal_inout_ifIiEENS_9allocatorIS4_EEE17__annotate_shrinkB8ne200100Em ; -- Begin function _ZNKSt3__16vectorIPN7sc_core18sc_signal_inout_ifIiEENS_9allocatorIS4_EEE17__annotate_shrinkB8ne200100Em
	.globl	__ZNKSt3__16vectorIPN7sc_core18sc_signal_inout_ifIiEENS_9allocatorIS4_EEE17__annotate_shrinkB8ne200100Em
	.weak_definition	__ZNKSt3__16vectorIPN7sc_core18sc_signal_inout_ifIiEENS_9allocatorIS4_EEE17__annotate_shrinkB8ne200100Em
	.p2align	2
__ZNKSt3__16vectorIPN7sc_core18sc_signal_inout_ifIiEENS_9allocatorIS4_EEE17__annotate_shrinkB8ne200100Em: ; @_ZNKSt3__16vectorIPN7sc_core18sc_signal_inout_ifIiEENS_9allocatorIS4_EEE17__annotate_shrinkB8ne200100Em
	.cfi_startproc
; %bb.0:
	sub	sp, sp, #16
	.cfi_def_cfa_offset 16
	str	x0, [sp, #8]
	str	x1, [sp]
	add	sp, sp, #16
	ret
	.cfi_endproc
                                        ; -- End function
	.globl	__ZNSt3__116allocator_traitsINS_9allocatorIPN7sc_core18sc_signal_inout_ifIiEEEEE7destroyB8ne200100IS5_TnNS_9enable_ifIXsr13__has_destroyIS6_PT_EE5valueEiE4typeELi0EEEvRS6_SB_ ; -- Begin function _ZNSt3__116allocator_traitsINS_9allocatorIPN7sc_core18sc_signal_inout_ifIiEEEEE7destroyB8ne200100IS5_TnNS_9enable_ifIXsr13__has_destroyIS6_PT_EE5valueEiE4typeELi0EEEvRS6_SB_
	.weak_definition	__ZNSt3__116allocator_traitsINS_9allocatorIPN7sc_core18sc_signal_inout_ifIiEEEEE7destroyB8ne200100IS5_TnNS_9enable_ifIXsr13__has_destroyIS6_PT_EE5valueEiE4typeELi0EEEvRS6_SB_
	.p2align	2
__ZNSt3__116allocator_traitsINS_9allocatorIPN7sc_core18sc_signal_inout_ifIiEEEEE7destroyB8ne200100IS5_TnNS_9enable_ifIXsr13__has_destroyIS6_PT_EE5valueEiE4typeELi0EEEvRS6_SB_: ; @_ZNSt3__116allocator_traitsINS_9allocatorIPN7sc_core18sc_signal_inout_ifIiEEEEE7destroyB8ne200100IS5_TnNS_9enable_ifIXsr13__has_destroyIS6_PT_EE5valueEiE4typeELi0EEEvRS6_SB_
	.cfi_startproc
; %bb.0:
	sub	sp, sp, #32
	stp	x29, x30, [sp, #16]             ; 16-byte Folded Spill
	add	x29, sp, #16
	.cfi_def_cfa w29, 16
	.cfi_offset w30, -8
	.cfi_offset w29, -16
	str	x0, [sp, #8]
	str	x1, [sp]
	ldr	x0, [sp, #8]
	ldr	x1, [sp]
	bl	__ZNSt3__19allocatorIPN7sc_core18sc_signal_inout_ifIiEEE7destroyB8ne200100EPS4_
	ldp	x29, x30, [sp, #16]             ; 16-byte Folded Reload
	add	sp, sp, #32
	ret
	.cfi_endproc
                                        ; -- End function
	.private_extern	__ZNSt3__112__to_addressB8ne200100IPN7sc_core18sc_signal_inout_ifIiEEEEPT_S6_ ; -- Begin function _ZNSt3__112__to_addressB8ne200100IPN7sc_core18sc_signal_inout_ifIiEEEEPT_S6_
	.globl	__ZNSt3__112__to_addressB8ne200100IPN7sc_core18sc_signal_inout_ifIiEEEEPT_S6_
	.weak_definition	__ZNSt3__112__to_addressB8ne200100IPN7sc_core18sc_signal_inout_ifIiEEEEPT_S6_
	.p2align	2
__ZNSt3__112__to_addressB8ne200100IPN7sc_core18sc_signal_inout_ifIiEEEEPT_S6_: ; @_ZNSt3__112__to_addressB8ne200100IPN7sc_core18sc_signal_inout_ifIiEEEEPT_S6_
	.cfi_startproc
; %bb.0:
	sub	sp, sp, #16
	.cfi_def_cfa_offset 16
	str	x0, [sp, #8]
	ldr	x0, [sp, #8]
	add	sp, sp, #16
	ret
	.cfi_endproc
                                        ; -- End function
	.private_extern	__ZNSt3__19allocatorIPN7sc_core18sc_signal_inout_ifIiEEE7destroyB8ne200100EPS4_ ; -- Begin function _ZNSt3__19allocatorIPN7sc_core18sc_signal_inout_ifIiEEE7destroyB8ne200100EPS4_
	.globl	__ZNSt3__19allocatorIPN7sc_core18sc_signal_inout_ifIiEEE7destroyB8ne200100EPS4_
	.weak_definition	__ZNSt3__19allocatorIPN7sc_core18sc_signal_inout_ifIiEEE7destroyB8ne200100EPS4_
	.p2align	2
__ZNSt3__19allocatorIPN7sc_core18sc_signal_inout_ifIiEEE7destroyB8ne200100EPS4_: ; @_ZNSt3__19allocatorIPN7sc_core18sc_signal_inout_ifIiEEE7destroyB8ne200100EPS4_
	.cfi_startproc
; %bb.0:
	sub	sp, sp, #16
	.cfi_def_cfa_offset 16
	str	x0, [sp, #8]
	str	x1, [sp]
	add	sp, sp, #16
	ret
	.cfi_endproc
                                        ; -- End function
	.private_extern	__ZNSt3__19allocatorIPN7sc_core18sc_signal_inout_ifIiEEE10deallocateB8ne200100EPS4_m ; -- Begin function _ZNSt3__19allocatorIPN7sc_core18sc_signal_inout_ifIiEEE10deallocateB8ne200100EPS4_m
	.globl	__ZNSt3__19allocatorIPN7sc_core18sc_signal_inout_ifIiEEE10deallocateB8ne200100EPS4_m
	.weak_definition	__ZNSt3__19allocatorIPN7sc_core18sc_signal_inout_ifIiEEE10deallocateB8ne200100EPS4_m
	.p2align	2
__ZNSt3__19allocatorIPN7sc_core18sc_signal_inout_ifIiEEE10deallocateB8ne200100EPS4_m: ; @_ZNSt3__19allocatorIPN7sc_core18sc_signal_inout_ifIiEEE10deallocateB8ne200100EPS4_m
	.cfi_startproc
; %bb.0:
	sub	sp, sp, #48
	stp	x29, x30, [sp, #32]             ; 16-byte Folded Spill
	add	x29, sp, #32
	.cfi_def_cfa w29, 16
	.cfi_offset w30, -8
	.cfi_offset w29, -16
	stur	x0, [x29, #-8]
	str	x1, [sp, #16]
	str	x2, [sp, #8]
	ldr	x0, [sp, #16]
	ldr	x1, [sp, #8]
	mov	x2, #8                          ; =0x8
	bl	__ZNSt3__119__libcpp_deallocateB8ne200100IPN7sc_core18sc_signal_inout_ifIiEEEEvPNS_15__type_identityIT_E4typeENS_15__element_countEm
	ldp	x29, x30, [sp, #32]             ; 16-byte Folded Reload
	add	sp, sp, #48
	ret
	.cfi_endproc
                                        ; -- End function
	.private_extern	__ZNSt3__119__libcpp_deallocateB8ne200100IPN7sc_core18sc_signal_inout_ifIiEEEEvPNS_15__type_identityIT_E4typeENS_15__element_countEm ; -- Begin function _ZNSt3__119__libcpp_deallocateB8ne200100IPN7sc_core18sc_signal_inout_ifIiEEEEvPNS_15__type_identityIT_E4typeENS_15__element_countEm
	.globl	__ZNSt3__119__libcpp_deallocateB8ne200100IPN7sc_core18sc_signal_inout_ifIiEEEEvPNS_15__type_identityIT_E4typeENS_15__element_countEm
	.weak_definition	__ZNSt3__119__libcpp_deallocateB8ne200100IPN7sc_core18sc_signal_inout_ifIiEEEEvPNS_15__type_identityIT_E4typeENS_15__element_countEm
	.p2align	2
__ZNSt3__119__libcpp_deallocateB8ne200100IPN7sc_core18sc_signal_inout_ifIiEEEEvPNS_15__type_identityIT_E4typeENS_15__element_countEm: ; @_ZNSt3__119__libcpp_deallocateB8ne200100IPN7sc_core18sc_signal_inout_ifIiEEEEvPNS_15__type_identityIT_E4typeENS_15__element_countEm
	.cfi_startproc
; %bb.0:
	sub	sp, sp, #64
	stp	x29, x30, [sp, #48]             ; 16-byte Folded Spill
	add	x29, sp, #48
	.cfi_def_cfa w29, 16
	.cfi_offset w30, -8
	.cfi_offset w29, -16
	stur	x0, [x29, #-8]
	stur	x1, [x29, #-16]
	str	x2, [sp, #24]
	ldur	x8, [x29, #-16]
	lsl	x8, x8, #3
	str	x8, [sp, #16]
	ldr	x0, [sp, #24]
	bl	__ZNSt3__124__is_overaligned_for_newB8ne200100Em
	tbz	w0, #0, LBB74_2
	b	LBB74_1
LBB74_1:
	ldr	x8, [sp, #24]
	str	x8, [sp, #8]
	ldur	x0, [x29, #-8]
	ldr	x1, [sp, #16]
	ldr	x2, [sp, #8]
	bl	__ZNSt3__124__libcpp_operator_deleteB8ne200100IJPPN7sc_core18sc_signal_inout_ifIiEEmSt11align_val_tEEEvDpT_
	b	LBB74_3
LBB74_2:
	ldur	x0, [x29, #-8]
	ldr	x1, [sp, #16]
	bl	__ZNSt3__124__libcpp_operator_deleteB8ne200100IJPPN7sc_core18sc_signal_inout_ifIiEEmEEEvDpT_
	b	LBB74_3
LBB74_3:
	ldp	x29, x30, [sp, #48]             ; 16-byte Folded Reload
	add	sp, sp, #64
	ret
	.cfi_endproc
                                        ; -- End function
	.private_extern	__ZNSt3__124__is_overaligned_for_newB8ne200100Em ; -- Begin function _ZNSt3__124__is_overaligned_for_newB8ne200100Em
	.globl	__ZNSt3__124__is_overaligned_for_newB8ne200100Em
	.weak_definition	__ZNSt3__124__is_overaligned_for_newB8ne200100Em
	.p2align	2
__ZNSt3__124__is_overaligned_for_newB8ne200100Em: ; @_ZNSt3__124__is_overaligned_for_newB8ne200100Em
	.cfi_startproc
; %bb.0:
	sub	sp, sp, #16
	.cfi_def_cfa_offset 16
	str	x0, [sp, #8]
	ldr	x8, [sp, #8]
	subs	x8, x8, #16
	cset	w0, hi
	add	sp, sp, #16
	ret
	.cfi_endproc
                                        ; -- End function
	.private_extern	__ZNSt3__124__libcpp_operator_deleteB8ne200100IJPPN7sc_core18sc_signal_inout_ifIiEEmSt11align_val_tEEEvDpT_ ; -- Begin function _ZNSt3__124__libcpp_operator_deleteB8ne200100IJPPN7sc_core18sc_signal_inout_ifIiEEmSt11align_val_tEEEvDpT_
	.globl	__ZNSt3__124__libcpp_operator_deleteB8ne200100IJPPN7sc_core18sc_signal_inout_ifIiEEmSt11align_val_tEEEvDpT_
	.weak_definition	__ZNSt3__124__libcpp_operator_deleteB8ne200100IJPPN7sc_core18sc_signal_inout_ifIiEEmSt11align_val_tEEEvDpT_
	.p2align	2
__ZNSt3__124__libcpp_operator_deleteB8ne200100IJPPN7sc_core18sc_signal_inout_ifIiEEmSt11align_val_tEEEvDpT_: ; @_ZNSt3__124__libcpp_operator_deleteB8ne200100IJPPN7sc_core18sc_signal_inout_ifIiEEmSt11align_val_tEEEvDpT_
	.cfi_startproc
; %bb.0:
	sub	sp, sp, #48
	stp	x29, x30, [sp, #32]             ; 16-byte Folded Spill
	add	x29, sp, #32
	.cfi_def_cfa w29, 16
	.cfi_offset w30, -8
	.cfi_offset w29, -16
	stur	x0, [x29, #-8]
	str	x1, [sp, #16]
	str	x2, [sp, #8]
	ldur	x0, [x29, #-8]
	ldr	x1, [sp, #16]
	ldr	x2, [sp, #8]
	bl	__ZdlPvmSt11align_val_t
	ldp	x29, x30, [sp, #32]             ; 16-byte Folded Reload
	add	sp, sp, #48
	ret
	.cfi_endproc
                                        ; -- End function
	.private_extern	__ZNSt3__124__libcpp_operator_deleteB8ne200100IJPPN7sc_core18sc_signal_inout_ifIiEEmEEEvDpT_ ; -- Begin function _ZNSt3__124__libcpp_operator_deleteB8ne200100IJPPN7sc_core18sc_signal_inout_ifIiEEmEEEvDpT_
	.globl	__ZNSt3__124__libcpp_operator_deleteB8ne200100IJPPN7sc_core18sc_signal_inout_ifIiEEmEEEvDpT_
	.weak_definition	__ZNSt3__124__libcpp_operator_deleteB8ne200100IJPPN7sc_core18sc_signal_inout_ifIiEEmEEEvDpT_
	.p2align	2
__ZNSt3__124__libcpp_operator_deleteB8ne200100IJPPN7sc_core18sc_signal_inout_ifIiEEmEEEvDpT_: ; @_ZNSt3__124__libcpp_operator_deleteB8ne200100IJPPN7sc_core18sc_signal_inout_ifIiEEmEEEvDpT_
	.cfi_startproc
; %bb.0:
	sub	sp, sp, #32
	stp	x29, x30, [sp, #16]             ; 16-byte Folded Spill
	add	x29, sp, #16
	.cfi_def_cfa w29, 16
	.cfi_offset w30, -8
	.cfi_offset w29, -16
	str	x0, [sp, #8]
	str	x1, [sp]
	ldr	x0, [sp, #8]
	ldr	x1, [sp]
	bl	__ZdlPvm
	ldp	x29, x30, [sp, #16]             ; 16-byte Folded Reload
	add	sp, sp, #32
	ret
	.cfi_endproc
                                        ; -- End function
	.globl	__ZN7sc_core7sc_portINS_18sc_signal_inout_ifIiEELi1ELNS_14sc_port_policyE0EED2Ev ; -- Begin function _ZN7sc_core7sc_portINS_18sc_signal_inout_ifIiEELi1ELNS_14sc_port_policyE0EED2Ev
	.weak_def_can_be_hidden	__ZN7sc_core7sc_portINS_18sc_signal_inout_ifIiEELi1ELNS_14sc_port_policyE0EED2Ev
	.p2align	2
__ZN7sc_core7sc_portINS_18sc_signal_inout_ifIiEELi1ELNS_14sc_port_policyE0EED2Ev: ; @_ZN7sc_core7sc_portINS_18sc_signal_inout_ifIiEELi1ELNS_14sc_port_policyE0EED2Ev
	.cfi_startproc
; %bb.0:
	sub	sp, sp, #32
	stp	x29, x30, [sp, #16]             ; 16-byte Folded Spill
	add	x29, sp, #16
	.cfi_def_cfa w29, 16
	.cfi_offset w30, -8
	.cfi_offset w29, -16
	str	x0, [sp, #8]
	ldr	x0, [sp, #8]
	str	x0, [sp]                        ; 8-byte Folded Spill
	bl	__ZN7sc_core9sc_port_bINS_18sc_signal_inout_ifIiEEED2Ev
	ldr	x0, [sp]                        ; 8-byte Folded Reload
	ldp	x29, x30, [sp, #16]             ; 16-byte Folded Reload
	add	sp, sp, #32
	ret
	.cfi_endproc
                                        ; -- End function
	.globl	__ZN7sc_core8sc_inoutIiED2Ev    ; -- Begin function _ZN7sc_core8sc_inoutIiED2Ev
	.weak_def_can_be_hidden	__ZN7sc_core8sc_inoutIiED2Ev
	.p2align	2
__ZN7sc_core8sc_inoutIiED2Ev:           ; @_ZN7sc_core8sc_inoutIiED2Ev
Lfunc_begin6:
	.cfi_startproc
	.cfi_personality 155, ___gxx_personality_v0
	.cfi_lsda 16, Lexception6
; %bb.0:
	sub	sp, sp, #64
	stp	x29, x30, [sp, #48]             ; 16-byte Folded Spill
	add	x29, sp, #48
	.cfi_def_cfa w29, 16
	.cfi_offset w30, -8
	.cfi_offset w29, -16
	stur	x0, [x29, #-16]
	ldur	x8, [x29, #-16]
	str	x8, [sp, #16]                   ; 8-byte Folded Spill
	mov	x9, x8
	stur	x9, [x29, #-8]
	adrp	x9, __ZTVN7sc_core8sc_inoutIiEE@GOTPAGE
	ldr	x9, [x9, __ZTVN7sc_core8sc_inoutIiEE@GOTPAGEOFF]
	add	x9, x9, #16
	str	x9, [x8]
	ldr	x8, [x8, #112]
	str	x8, [sp, #24]                   ; 8-byte Folded Spill
	cbz	x8, LBB79_2
	b	LBB79_1
LBB79_1:
	ldr	x0, [sp, #24]                   ; 8-byte Folded Reload
	ldr	x8, [x0]
	ldr	x8, [x8, #8]
	blr	x8
	b	LBB79_2
LBB79_2:
	ldr	x8, [sp, #16]                   ; 8-byte Folded Reload
	ldr	x8, [x8, #96]
	str	x8, [sp, #8]                    ; 8-byte Folded Spill
	cbz	x8, LBB79_4
	b	LBB79_3
LBB79_3:
	ldr	x0, [sp, #8]                    ; 8-byte Folded Reload
	mov	x1, #4                          ; =0x4
	bl	__ZdlPvm
	b	LBB79_4
LBB79_4:
Ltmp86:
	ldr	x0, [sp, #16]                   ; 8-byte Folded Reload
	bl	__ZNK7sc_core8sc_inoutIiE13remove_tracesEv
Ltmp87:
	b	LBB79_5
LBB79_5:
	ldr	x0, [sp, #16]                   ; 8-byte Folded Reload
	bl	__ZN7sc_core7sc_portINS_18sc_signal_inout_ifIiEELi1ELNS_14sc_port_policyE0EED2Ev
	ldur	x0, [x29, #-8]
	ldp	x29, x30, [sp, #48]             ; 16-byte Folded Reload
	add	sp, sp, #64
	ret
LBB79_6:
Ltmp88:
	bl	___clang_call_terminate
Lfunc_end6:
	.cfi_endproc
	.section	__TEXT,__gcc_except_tab
	.p2align	2, 0x0
GCC_except_table79:
Lexception6:
	.byte	255                             ; @LPStart Encoding = omit
	.byte	155                             ; @TType Encoding = indirect pcrel sdata4
	.uleb128 Lttbase3-Lttbaseref3
Lttbaseref3:
	.byte	1                               ; Call site Encoding = uleb128
	.uleb128 Lcst_end6-Lcst_begin6
Lcst_begin6:
	.uleb128 Lfunc_begin6-Lfunc_begin6      ; >> Call Site 1 <<
	.uleb128 Ltmp86-Lfunc_begin6            ;   Call between Lfunc_begin6 and Ltmp86
	.byte	0                               ;     has no landing pad
	.byte	0                               ;   On action: cleanup
	.uleb128 Ltmp86-Lfunc_begin6            ; >> Call Site 2 <<
	.uleb128 Ltmp87-Ltmp86                  ;   Call between Ltmp86 and Ltmp87
	.uleb128 Ltmp88-Lfunc_begin6            ;     jumps to Ltmp88
	.byte	1                               ;   On action: 1
Lcst_end6:
	.byte	1                               ; >> Action Record 1 <<
                                        ;   Catch TypeInfo 1
	.byte	0                               ;   No further actions
	.p2align	2, 0x0
                                        ; >> Catch TypeInfos <<
	.long	0                               ; TypeInfo 1
Lttbase3:
	.p2align	2, 0x0
                                        ; -- End function
	.section	__TEXT,__text,regular,pure_instructions
	.globl	__ZNK7sc_core8sc_inoutIiE13remove_tracesEv ; -- Begin function _ZNK7sc_core8sc_inoutIiE13remove_tracesEv
	.weak_definition	__ZNK7sc_core8sc_inoutIiE13remove_tracesEv
	.p2align	2
__ZNK7sc_core8sc_inoutIiE13remove_tracesEv: ; @_ZNK7sc_core8sc_inoutIiE13remove_tracesEv
	.cfi_startproc
; %bb.0:
	sub	sp, sp, #64
	stp	x29, x30, [sp, #48]             ; 16-byte Folded Spill
	add	x29, sp, #48
	.cfi_def_cfa w29, 16
	.cfi_offset w30, -8
	.cfi_offset w29, -16
	stur	x0, [x29, #-8]
	ldur	x8, [x29, #-8]
	str	x8, [sp, #24]                   ; 8-byte Folded Spill
	ldr	x8, [x8, #104]
	cbz	x8, LBB80_10
	b	LBB80_1
LBB80_1:
	ldr	x8, [sp, #24]                   ; 8-byte Folded Reload
	ldr	x0, [x8, #104]
	bl	__ZNKSt3__16vectorIPN7sc_core15sc_trace_paramsENS_9allocatorIS3_EEE4sizeB8ne200100Ev
	mov	x8, x0
	subs	w8, w8, #1
	stur	w8, [x29, #-12]
	b	LBB80_2
LBB80_2:                                ; =>This Inner Loop Header: Depth=1
	ldur	w8, [x29, #-12]
	tbnz	w8, #31, LBB80_7
	b	LBB80_3
LBB80_3:                                ;   in Loop: Header=BB80_2 Depth=1
	ldr	x8, [sp, #24]                   ; 8-byte Folded Reload
	ldr	x0, [x8, #104]
	ldursw	x1, [x29, #-12]
	bl	__ZNSt3__16vectorIPN7sc_core15sc_trace_paramsENS_9allocatorIS3_EEEixB8ne200100Em
	ldr	x8, [x0]
	str	x8, [sp, #16]                   ; 8-byte Folded Spill
	cbz	x8, LBB80_5
	b	LBB80_4
LBB80_4:                                ;   in Loop: Header=BB80_2 Depth=1
	ldr	x0, [sp, #16]                   ; 8-byte Folded Reload
	bl	__ZN7sc_core15sc_trace_paramsD1Ev
	ldr	x0, [sp, #16]                   ; 8-byte Folded Reload
	mov	x1, #32                         ; =0x20
	bl	__ZdlPvm
	b	LBB80_5
LBB80_5:                                ;   in Loop: Header=BB80_2 Depth=1
	b	LBB80_6
LBB80_6:                                ;   in Loop: Header=BB80_2 Depth=1
	ldur	w8, [x29, #-12]
	subs	w8, w8, #1
	stur	w8, [x29, #-12]
	b	LBB80_2
LBB80_7:
	ldr	x8, [sp, #24]                   ; 8-byte Folded Reload
	ldr	x8, [x8, #104]
	str	x8, [sp, #8]                    ; 8-byte Folded Spill
	cbz	x8, LBB80_9
	b	LBB80_8
LBB80_8:
	ldr	x0, [sp, #8]                    ; 8-byte Folded Reload
	bl	__ZNSt3__16vectorIPN7sc_core15sc_trace_paramsENS_9allocatorIS3_EEED1B8ne200100Ev
	ldr	x0, [sp, #8]                    ; 8-byte Folded Reload
	mov	x1, #24                         ; =0x18
	bl	__ZdlPvm
	b	LBB80_9
LBB80_9:
	ldr	x8, [sp, #24]                   ; 8-byte Folded Reload
                                        ; kill: def $x9 killed $xzr
	str	xzr, [x8, #104]
	b	LBB80_10
LBB80_10:
	ldp	x29, x30, [sp, #48]             ; 16-byte Folded Reload
	add	sp, sp, #64
	ret
	.cfi_endproc
                                        ; -- End function
	.private_extern	__ZNKSt3__16vectorIPN7sc_core15sc_trace_paramsENS_9allocatorIS3_EEE4sizeB8ne200100Ev ; -- Begin function _ZNKSt3__16vectorIPN7sc_core15sc_trace_paramsENS_9allocatorIS3_EEE4sizeB8ne200100Ev
	.globl	__ZNKSt3__16vectorIPN7sc_core15sc_trace_paramsENS_9allocatorIS3_EEE4sizeB8ne200100Ev
	.weak_definition	__ZNKSt3__16vectorIPN7sc_core15sc_trace_paramsENS_9allocatorIS3_EEE4sizeB8ne200100Ev
	.p2align	2
__ZNKSt3__16vectorIPN7sc_core15sc_trace_paramsENS_9allocatorIS3_EEE4sizeB8ne200100Ev: ; @_ZNKSt3__16vectorIPN7sc_core15sc_trace_paramsENS_9allocatorIS3_EEE4sizeB8ne200100Ev
	.cfi_startproc
; %bb.0:
	sub	sp, sp, #16
	.cfi_def_cfa_offset 16
	str	x0, [sp, #8]
	ldr	x9, [sp, #8]
	ldr	x8, [x9, #8]
	ldr	x9, [x9]
	subs	x8, x8, x9
	mov	x9, #8                          ; =0x8
	sdiv	x0, x8, x9
	add	sp, sp, #16
	ret
	.cfi_endproc
                                        ; -- End function
	.private_extern	__ZNSt3__16vectorIPN7sc_core15sc_trace_paramsENS_9allocatorIS3_EEEixB8ne200100Em ; -- Begin function _ZNSt3__16vectorIPN7sc_core15sc_trace_paramsENS_9allocatorIS3_EEEixB8ne200100Em
	.globl	__ZNSt3__16vectorIPN7sc_core15sc_trace_paramsENS_9allocatorIS3_EEEixB8ne200100Em
	.weak_definition	__ZNSt3__16vectorIPN7sc_core15sc_trace_paramsENS_9allocatorIS3_EEEixB8ne200100Em
	.p2align	2
__ZNSt3__16vectorIPN7sc_core15sc_trace_paramsENS_9allocatorIS3_EEEixB8ne200100Em: ; @_ZNSt3__16vectorIPN7sc_core15sc_trace_paramsENS_9allocatorIS3_EEEixB8ne200100Em
	.cfi_startproc
; %bb.0:
	sub	sp, sp, #16
	.cfi_def_cfa_offset 16
	str	x0, [sp, #8]
	str	x1, [sp]
	ldr	x8, [sp, #8]
	ldr	x8, [x8]
	ldr	x9, [sp]
	add	x0, x8, x9, lsl #3
	add	sp, sp, #16
	ret
	.cfi_endproc
                                        ; -- End function
	.globl	__ZN7sc_core15sc_trace_paramsD1Ev ; -- Begin function _ZN7sc_core15sc_trace_paramsD1Ev
	.weak_def_can_be_hidden	__ZN7sc_core15sc_trace_paramsD1Ev
	.p2align	2
__ZN7sc_core15sc_trace_paramsD1Ev:      ; @_ZN7sc_core15sc_trace_paramsD1Ev
	.cfi_startproc
; %bb.0:
	sub	sp, sp, #32
	stp	x29, x30, [sp, #16]             ; 16-byte Folded Spill
	add	x29, sp, #16
	.cfi_def_cfa w29, 16
	.cfi_offset w30, -8
	.cfi_offset w29, -16
	str	x0, [sp, #8]
	ldr	x0, [sp, #8]
	str	x0, [sp]                        ; 8-byte Folded Spill
	bl	__ZN7sc_core15sc_trace_paramsD2Ev
	ldr	x0, [sp]                        ; 8-byte Folded Reload
	ldp	x29, x30, [sp, #16]             ; 16-byte Folded Reload
	add	sp, sp, #32
	ret
	.cfi_endproc
                                        ; -- End function
	.private_extern	__ZNSt3__16vectorIPN7sc_core15sc_trace_paramsENS_9allocatorIS3_EEED1B8ne200100Ev ; -- Begin function _ZNSt3__16vectorIPN7sc_core15sc_trace_paramsENS_9allocatorIS3_EEED1B8ne200100Ev
	.globl	__ZNSt3__16vectorIPN7sc_core15sc_trace_paramsENS_9allocatorIS3_EEED1B8ne200100Ev
	.weak_def_can_be_hidden	__ZNSt3__16vectorIPN7sc_core15sc_trace_paramsENS_9allocatorIS3_EEED1B8ne200100Ev
	.p2align	2
__ZNSt3__16vectorIPN7sc_core15sc_trace_paramsENS_9allocatorIS3_EEED1B8ne200100Ev: ; @_ZNSt3__16vectorIPN7sc_core15sc_trace_paramsENS_9allocatorIS3_EEED1B8ne200100Ev
	.cfi_startproc
; %bb.0:
	sub	sp, sp, #32
	stp	x29, x30, [sp, #16]             ; 16-byte Folded Spill
	add	x29, sp, #16
	.cfi_def_cfa w29, 16
	.cfi_offset w30, -8
	.cfi_offset w29, -16
	str	x0, [sp, #8]
	ldr	x0, [sp, #8]
	str	x0, [sp]                        ; 8-byte Folded Spill
	bl	__ZNSt3__16vectorIPN7sc_core15sc_trace_paramsENS_9allocatorIS3_EEED2B8ne200100Ev
	ldr	x0, [sp]                        ; 8-byte Folded Reload
	ldp	x29, x30, [sp, #16]             ; 16-byte Folded Reload
	add	sp, sp, #32
	ret
	.cfi_endproc
                                        ; -- End function
	.globl	__ZN7sc_core15sc_trace_paramsD2Ev ; -- Begin function _ZN7sc_core15sc_trace_paramsD2Ev
	.weak_def_can_be_hidden	__ZN7sc_core15sc_trace_paramsD2Ev
	.p2align	2
__ZN7sc_core15sc_trace_paramsD2Ev:      ; @_ZN7sc_core15sc_trace_paramsD2Ev
	.cfi_startproc
; %bb.0:
	sub	sp, sp, #32
	stp	x29, x30, [sp, #16]             ; 16-byte Folded Spill
	add	x29, sp, #16
	.cfi_def_cfa w29, 16
	.cfi_offset w30, -8
	.cfi_offset w29, -16
	str	x0, [sp, #8]
	ldr	x8, [sp, #8]
	str	x8, [sp]                        ; 8-byte Folded Spill
	add	x0, x8, #8
	bl	__ZNSt3__112basic_stringIcNS_11char_traitsIcEENS_9allocatorIcEEED1Ev
	ldr	x0, [sp]                        ; 8-byte Folded Reload
	ldp	x29, x30, [sp, #16]             ; 16-byte Folded Reload
	add	sp, sp, #32
	ret
	.cfi_endproc
                                        ; -- End function
	.private_extern	__ZNSt3__16vectorIPN7sc_core15sc_trace_paramsENS_9allocatorIS3_EEED2B8ne200100Ev ; -- Begin function _ZNSt3__16vectorIPN7sc_core15sc_trace_paramsENS_9allocatorIS3_EEED2B8ne200100Ev
	.globl	__ZNSt3__16vectorIPN7sc_core15sc_trace_paramsENS_9allocatorIS3_EEED2B8ne200100Ev
	.weak_def_can_be_hidden	__ZNSt3__16vectorIPN7sc_core15sc_trace_paramsENS_9allocatorIS3_EEED2B8ne200100Ev
	.p2align	2
__ZNSt3__16vectorIPN7sc_core15sc_trace_paramsENS_9allocatorIS3_EEED2B8ne200100Ev: ; @_ZNSt3__16vectorIPN7sc_core15sc_trace_paramsENS_9allocatorIS3_EEED2B8ne200100Ev
Lfunc_begin7:
	.cfi_startproc
	.cfi_personality 155, ___gxx_personality_v0
	.cfi_lsda 16, Lexception7
; %bb.0:
	sub	sp, sp, #48
	stp	x29, x30, [sp, #32]             ; 16-byte Folded Spill
	add	x29, sp, #32
	.cfi_def_cfa w29, 16
	.cfi_offset w30, -8
	.cfi_offset w29, -16
	stur	x0, [x29, #-8]
	ldur	x1, [x29, #-8]
	str	x1, [sp, #8]                    ; 8-byte Folded Spill
Ltmp91:
	add	x0, sp, #16
	bl	__ZNSt3__16vectorIPN7sc_core15sc_trace_paramsENS_9allocatorIS3_EEE16__destroy_vectorC1B8ne200100ERS6_
Ltmp92:
	b	LBB86_1
LBB86_1:
Ltmp93:
	add	x0, sp, #16
	bl	__ZNSt3__16vectorIPN7sc_core15sc_trace_paramsENS_9allocatorIS3_EEE16__destroy_vectorclB8ne200100Ev
Ltmp94:
	b	LBB86_2
LBB86_2:
	ldr	x0, [sp, #8]                    ; 8-byte Folded Reload
	ldp	x29, x30, [sp, #32]             ; 16-byte Folded Reload
	add	sp, sp, #48
	ret
LBB86_3:
Ltmp95:
	bl	___clang_call_terminate
Lfunc_end7:
	.cfi_endproc
	.section	__TEXT,__gcc_except_tab
	.p2align	2, 0x0
GCC_except_table86:
Lexception7:
	.byte	255                             ; @LPStart Encoding = omit
	.byte	155                             ; @TType Encoding = indirect pcrel sdata4
	.uleb128 Lttbase4-Lttbaseref4
Lttbaseref4:
	.byte	1                               ; Call site Encoding = uleb128
	.uleb128 Lcst_end7-Lcst_begin7
Lcst_begin7:
	.uleb128 Ltmp91-Lfunc_begin7            ; >> Call Site 1 <<
	.uleb128 Ltmp94-Ltmp91                  ;   Call between Ltmp91 and Ltmp94
	.uleb128 Ltmp95-Lfunc_begin7            ;     jumps to Ltmp95
	.byte	1                               ;   On action: 1
Lcst_end7:
	.byte	1                               ; >> Action Record 1 <<
                                        ;   Catch TypeInfo 1
	.byte	0                               ;   No further actions
	.p2align	2, 0x0
                                        ; >> Catch TypeInfos <<
	.long	0                               ; TypeInfo 1
Lttbase4:
	.p2align	2, 0x0
                                        ; -- End function
	.section	__TEXT,__text,regular,pure_instructions
	.private_extern	__ZNSt3__16vectorIPN7sc_core15sc_trace_paramsENS_9allocatorIS3_EEE16__destroy_vectorC1B8ne200100ERS6_ ; -- Begin function _ZNSt3__16vectorIPN7sc_core15sc_trace_paramsENS_9allocatorIS3_EEE16__destroy_vectorC1B8ne200100ERS6_
	.globl	__ZNSt3__16vectorIPN7sc_core15sc_trace_paramsENS_9allocatorIS3_EEE16__destroy_vectorC1B8ne200100ERS6_
	.weak_def_can_be_hidden	__ZNSt3__16vectorIPN7sc_core15sc_trace_paramsENS_9allocatorIS3_EEE16__destroy_vectorC1B8ne200100ERS6_
	.p2align	2
__ZNSt3__16vectorIPN7sc_core15sc_trace_paramsENS_9allocatorIS3_EEE16__destroy_vectorC1B8ne200100ERS6_: ; @_ZNSt3__16vectorIPN7sc_core15sc_trace_paramsENS_9allocatorIS3_EEE16__destroy_vectorC1B8ne200100ERS6_
	.cfi_startproc
; %bb.0:
	sub	sp, sp, #48
	stp	x29, x30, [sp, #32]             ; 16-byte Folded Spill
	add	x29, sp, #32
	.cfi_def_cfa w29, 16
	.cfi_offset w30, -8
	.cfi_offset w29, -16
	stur	x0, [x29, #-8]
	str	x1, [sp, #16]
	ldur	x0, [x29, #-8]
	str	x0, [sp, #8]                    ; 8-byte Folded Spill
	ldr	x1, [sp, #16]
	bl	__ZNSt3__16vectorIPN7sc_core15sc_trace_paramsENS_9allocatorIS3_EEE16__destroy_vectorC2B8ne200100ERS6_
	ldr	x0, [sp, #8]                    ; 8-byte Folded Reload
	ldp	x29, x30, [sp, #32]             ; 16-byte Folded Reload
	add	sp, sp, #48
	ret
	.cfi_endproc
                                        ; -- End function
	.private_extern	__ZNSt3__16vectorIPN7sc_core15sc_trace_paramsENS_9allocatorIS3_EEE16__destroy_vectorclB8ne200100Ev ; -- Begin function _ZNSt3__16vectorIPN7sc_core15sc_trace_paramsENS_9allocatorIS3_EEE16__destroy_vectorclB8ne200100Ev
	.globl	__ZNSt3__16vectorIPN7sc_core15sc_trace_paramsENS_9allocatorIS3_EEE16__destroy_vectorclB8ne200100Ev
	.weak_definition	__ZNSt3__16vectorIPN7sc_core15sc_trace_paramsENS_9allocatorIS3_EEE16__destroy_vectorclB8ne200100Ev
	.p2align	2
__ZNSt3__16vectorIPN7sc_core15sc_trace_paramsENS_9allocatorIS3_EEE16__destroy_vectorclB8ne200100Ev: ; @_ZNSt3__16vectorIPN7sc_core15sc_trace_paramsENS_9allocatorIS3_EEE16__destroy_vectorclB8ne200100Ev
	.cfi_startproc
; %bb.0:
	sub	sp, sp, #48
	stp	x29, x30, [sp, #32]             ; 16-byte Folded Spill
	add	x29, sp, #32
	.cfi_def_cfa w29, 16
	.cfi_offset w30, -8
	.cfi_offset w29, -16
	stur	x0, [x29, #-8]
	ldur	x8, [x29, #-8]
	str	x8, [sp, #16]                   ; 8-byte Folded Spill
	ldr	x8, [x8]
	ldr	x8, [x8]
	cbz	x8, LBB88_2
	b	LBB88_1
LBB88_1:
	ldr	x8, [sp, #16]                   ; 8-byte Folded Reload
	ldr	x0, [x8]
	bl	__ZNSt3__16vectorIPN7sc_core15sc_trace_paramsENS_9allocatorIS3_EEE5clearB8ne200100Ev
	ldr	x8, [sp, #16]                   ; 8-byte Folded Reload
	ldr	x0, [x8]
	bl	__ZNKSt3__16vectorIPN7sc_core15sc_trace_paramsENS_9allocatorIS3_EEE17__annotate_deleteB8ne200100Ev
	ldr	x8, [sp, #16]                   ; 8-byte Folded Reload
	ldr	x9, [x8]
	str	x9, [sp, #8]                    ; 8-byte Folded Spill
	ldr	x9, [x8]
	ldr	x9, [x9]
	str	x9, [sp]                        ; 8-byte Folded Spill
	ldr	x0, [x8]
	bl	__ZNKSt3__16vectorIPN7sc_core15sc_trace_paramsENS_9allocatorIS3_EEE8capacityB8ne200100Ev
	ldr	x1, [sp]                        ; 8-byte Folded Reload
	mov	x2, x0
	ldr	x0, [sp, #8]                    ; 8-byte Folded Reload
	bl	__ZNSt3__116allocator_traitsINS_9allocatorIPN7sc_core15sc_trace_paramsEEEE10deallocateB8ne200100ERS5_PS4_m
	b	LBB88_2
LBB88_2:
	ldp	x29, x30, [sp, #32]             ; 16-byte Folded Reload
	add	sp, sp, #48
	ret
	.cfi_endproc
                                        ; -- End function
	.private_extern	__ZNSt3__16vectorIPN7sc_core15sc_trace_paramsENS_9allocatorIS3_EEE16__destroy_vectorC2B8ne200100ERS6_ ; -- Begin function _ZNSt3__16vectorIPN7sc_core15sc_trace_paramsENS_9allocatorIS3_EEE16__destroy_vectorC2B8ne200100ERS6_
	.globl	__ZNSt3__16vectorIPN7sc_core15sc_trace_paramsENS_9allocatorIS3_EEE16__destroy_vectorC2B8ne200100ERS6_
	.weak_def_can_be_hidden	__ZNSt3__16vectorIPN7sc_core15sc_trace_paramsENS_9allocatorIS3_EEE16__destroy_vectorC2B8ne200100ERS6_
	.p2align	2
__ZNSt3__16vectorIPN7sc_core15sc_trace_paramsENS_9allocatorIS3_EEE16__destroy_vectorC2B8ne200100ERS6_: ; @_ZNSt3__16vectorIPN7sc_core15sc_trace_paramsENS_9allocatorIS3_EEE16__destroy_vectorC2B8ne200100ERS6_
	.cfi_startproc
; %bb.0:
	sub	sp, sp, #16
	.cfi_def_cfa_offset 16
	str	x0, [sp, #8]
	str	x1, [sp]
	ldr	x0, [sp, #8]
	ldr	x8, [sp]
	str	x8, [x0]
	add	sp, sp, #16
	ret
	.cfi_endproc
                                        ; -- End function
	.private_extern	__ZNSt3__16vectorIPN7sc_core15sc_trace_paramsENS_9allocatorIS3_EEE5clearB8ne200100Ev ; -- Begin function _ZNSt3__16vectorIPN7sc_core15sc_trace_paramsENS_9allocatorIS3_EEE5clearB8ne200100Ev
	.globl	__ZNSt3__16vectorIPN7sc_core15sc_trace_paramsENS_9allocatorIS3_EEE5clearB8ne200100Ev
	.weak_definition	__ZNSt3__16vectorIPN7sc_core15sc_trace_paramsENS_9allocatorIS3_EEE5clearB8ne200100Ev
	.p2align	2
__ZNSt3__16vectorIPN7sc_core15sc_trace_paramsENS_9allocatorIS3_EEE5clearB8ne200100Ev: ; @_ZNSt3__16vectorIPN7sc_core15sc_trace_paramsENS_9allocatorIS3_EEE5clearB8ne200100Ev
	.cfi_startproc
; %bb.0:
	sub	sp, sp, #48
	stp	x29, x30, [sp, #32]             ; 16-byte Folded Spill
	add	x29, sp, #32
	.cfi_def_cfa w29, 16
	.cfi_offset w30, -8
	.cfi_offset w29, -16
	stur	x0, [x29, #-8]
	ldur	x0, [x29, #-8]
	str	x0, [sp, #8]                    ; 8-byte Folded Spill
	bl	__ZNKSt3__16vectorIPN7sc_core15sc_trace_paramsENS_9allocatorIS3_EEE4sizeB8ne200100Ev
	mov	x8, x0
	ldr	x0, [sp, #8]                    ; 8-byte Folded Reload
	str	x8, [sp, #16]
	ldr	x1, [x0]
	bl	__ZNSt3__16vectorIPN7sc_core15sc_trace_paramsENS_9allocatorIS3_EEE22__base_destruct_at_endB8ne200100EPS3_
	ldr	x0, [sp, #8]                    ; 8-byte Folded Reload
	ldr	x1, [sp, #16]
	bl	__ZNKSt3__16vectorIPN7sc_core15sc_trace_paramsENS_9allocatorIS3_EEE17__annotate_shrinkB8ne200100Em
	ldp	x29, x30, [sp, #32]             ; 16-byte Folded Reload
	add	sp, sp, #48
	ret
	.cfi_endproc
                                        ; -- End function
	.private_extern	__ZNKSt3__16vectorIPN7sc_core15sc_trace_paramsENS_9allocatorIS3_EEE17__annotate_deleteB8ne200100Ev ; -- Begin function _ZNKSt3__16vectorIPN7sc_core15sc_trace_paramsENS_9allocatorIS3_EEE17__annotate_deleteB8ne200100Ev
	.globl	__ZNKSt3__16vectorIPN7sc_core15sc_trace_paramsENS_9allocatorIS3_EEE17__annotate_deleteB8ne200100Ev
	.weak_definition	__ZNKSt3__16vectorIPN7sc_core15sc_trace_paramsENS_9allocatorIS3_EEE17__annotate_deleteB8ne200100Ev
	.p2align	2
__ZNKSt3__16vectorIPN7sc_core15sc_trace_paramsENS_9allocatorIS3_EEE17__annotate_deleteB8ne200100Ev: ; @_ZNKSt3__16vectorIPN7sc_core15sc_trace_paramsENS_9allocatorIS3_EEE17__annotate_deleteB8ne200100Ev
	.cfi_startproc
; %bb.0:
	sub	sp, sp, #16
	.cfi_def_cfa_offset 16
	str	x0, [sp, #8]
	add	sp, sp, #16
	ret
	.cfi_endproc
                                        ; -- End function
	.private_extern	__ZNSt3__116allocator_traitsINS_9allocatorIPN7sc_core15sc_trace_paramsEEEE10deallocateB8ne200100ERS5_PS4_m ; -- Begin function _ZNSt3__116allocator_traitsINS_9allocatorIPN7sc_core15sc_trace_paramsEEEE10deallocateB8ne200100ERS5_PS4_m
	.globl	__ZNSt3__116allocator_traitsINS_9allocatorIPN7sc_core15sc_trace_paramsEEEE10deallocateB8ne200100ERS5_PS4_m
	.weak_definition	__ZNSt3__116allocator_traitsINS_9allocatorIPN7sc_core15sc_trace_paramsEEEE10deallocateB8ne200100ERS5_PS4_m
	.p2align	2
__ZNSt3__116allocator_traitsINS_9allocatorIPN7sc_core15sc_trace_paramsEEEE10deallocateB8ne200100ERS5_PS4_m: ; @_ZNSt3__116allocator_traitsINS_9allocatorIPN7sc_core15sc_trace_paramsEEEE10deallocateB8ne200100ERS5_PS4_m
	.cfi_startproc
; %bb.0:
	sub	sp, sp, #48
	stp	x29, x30, [sp, #32]             ; 16-byte Folded Spill
	add	x29, sp, #32
	.cfi_def_cfa w29, 16
	.cfi_offset w30, -8
	.cfi_offset w29, -16
	stur	x0, [x29, #-8]
	str	x1, [sp, #16]
	str	x2, [sp, #8]
	ldur	x0, [x29, #-8]
	ldr	x1, [sp, #16]
	ldr	x2, [sp, #8]
	bl	__ZNSt3__19allocatorIPN7sc_core15sc_trace_paramsEE10deallocateB8ne200100EPS3_m
	ldp	x29, x30, [sp, #32]             ; 16-byte Folded Reload
	add	sp, sp, #48
	ret
	.cfi_endproc
                                        ; -- End function
	.private_extern	__ZNKSt3__16vectorIPN7sc_core15sc_trace_paramsENS_9allocatorIS3_EEE8capacityB8ne200100Ev ; -- Begin function _ZNKSt3__16vectorIPN7sc_core15sc_trace_paramsENS_9allocatorIS3_EEE8capacityB8ne200100Ev
	.globl	__ZNKSt3__16vectorIPN7sc_core15sc_trace_paramsENS_9allocatorIS3_EEE8capacityB8ne200100Ev
	.weak_definition	__ZNKSt3__16vectorIPN7sc_core15sc_trace_paramsENS_9allocatorIS3_EEE8capacityB8ne200100Ev
	.p2align	2
__ZNKSt3__16vectorIPN7sc_core15sc_trace_paramsENS_9allocatorIS3_EEE8capacityB8ne200100Ev: ; @_ZNKSt3__16vectorIPN7sc_core15sc_trace_paramsENS_9allocatorIS3_EEE8capacityB8ne200100Ev
	.cfi_startproc
; %bb.0:
	sub	sp, sp, #16
	.cfi_def_cfa_offset 16
	str	x0, [sp, #8]
	ldr	x9, [sp, #8]
	ldr	x8, [x9, #16]
	ldr	x9, [x9]
	subs	x8, x8, x9
	mov	x9, #8                          ; =0x8
	sdiv	x0, x8, x9
	add	sp, sp, #16
	ret
	.cfi_endproc
                                        ; -- End function
	.private_extern	__ZNSt3__16vectorIPN7sc_core15sc_trace_paramsENS_9allocatorIS3_EEE22__base_destruct_at_endB8ne200100EPS3_ ; -- Begin function _ZNSt3__16vectorIPN7sc_core15sc_trace_paramsENS_9allocatorIS3_EEE22__base_destruct_at_endB8ne200100EPS3_
	.globl	__ZNSt3__16vectorIPN7sc_core15sc_trace_paramsENS_9allocatorIS3_EEE22__base_destruct_at_endB8ne200100EPS3_
	.weak_definition	__ZNSt3__16vectorIPN7sc_core15sc_trace_paramsENS_9allocatorIS3_EEE22__base_destruct_at_endB8ne200100EPS3_
	.p2align	2
__ZNSt3__16vectorIPN7sc_core15sc_trace_paramsENS_9allocatorIS3_EEE22__base_destruct_at_endB8ne200100EPS3_: ; @_ZNSt3__16vectorIPN7sc_core15sc_trace_paramsENS_9allocatorIS3_EEE22__base_destruct_at_endB8ne200100EPS3_
Lfunc_begin8:
	.cfi_startproc
	.cfi_personality 155, ___gxx_personality_v0
	.cfi_lsda 16, Lexception8
; %bb.0:
	sub	sp, sp, #48
	stp	x29, x30, [sp, #32]             ; 16-byte Folded Spill
	add	x29, sp, #32
	.cfi_def_cfa w29, 16
	.cfi_offset w30, -8
	.cfi_offset w29, -16
	stur	x0, [x29, #-8]
	str	x1, [sp, #16]
	ldur	x8, [x29, #-8]
	str	x8, [sp]                        ; 8-byte Folded Spill
	ldr	x8, [x8, #8]
	str	x8, [sp, #8]
	b	LBB94_1
LBB94_1:                                ; =>This Inner Loop Header: Depth=1
	ldr	x8, [sp, #16]
	ldr	x9, [sp, #8]
	subs	x8, x8, x9
	b.eq	LBB94_4
	b	LBB94_2
LBB94_2:                                ;   in Loop: Header=BB94_1 Depth=1
	ldr	x8, [sp, #8]
	subs	x0, x8, #8
	str	x0, [sp, #8]
	bl	__ZNSt3__112__to_addressB8ne200100IPN7sc_core15sc_trace_paramsEEEPT_S5_
	mov	x1, x0
	ldr	x0, [sp]                        ; 8-byte Folded Reload
Ltmp99:
	bl	__ZNSt3__116allocator_traitsINS_9allocatorIPN7sc_core15sc_trace_paramsEEEE7destroyB8ne200100IS4_TnNS_9enable_ifIXsr13__has_destroyIS5_PT_EE5valueEiE4typeELi0EEEvRS5_SA_
Ltmp100:
	b	LBB94_3
LBB94_3:                                ;   in Loop: Header=BB94_1 Depth=1
	b	LBB94_1
LBB94_4:
	ldr	x9, [sp]                        ; 8-byte Folded Reload
	ldr	x8, [sp, #16]
	str	x8, [x9, #8]
	ldp	x29, x30, [sp, #32]             ; 16-byte Folded Reload
	add	sp, sp, #48
	ret
LBB94_5:
Ltmp101:
	bl	___clang_call_terminate
Lfunc_end8:
	.cfi_endproc
	.section	__TEXT,__gcc_except_tab
	.p2align	2, 0x0
GCC_except_table94:
Lexception8:
	.byte	255                             ; @LPStart Encoding = omit
	.byte	155                             ; @TType Encoding = indirect pcrel sdata4
	.uleb128 Lttbase5-Lttbaseref5
Lttbaseref5:
	.byte	1                               ; Call site Encoding = uleb128
	.uleb128 Lcst_end8-Lcst_begin8
Lcst_begin8:
	.uleb128 Ltmp99-Lfunc_begin8            ; >> Call Site 1 <<
	.uleb128 Ltmp100-Ltmp99                 ;   Call between Ltmp99 and Ltmp100
	.uleb128 Ltmp101-Lfunc_begin8           ;     jumps to Ltmp101
	.byte	1                               ;   On action: 1
Lcst_end8:
	.byte	1                               ; >> Action Record 1 <<
                                        ;   Catch TypeInfo 1
	.byte	0                               ;   No further actions
	.p2align	2, 0x0
                                        ; >> Catch TypeInfos <<
	.long	0                               ; TypeInfo 1
Lttbase5:
	.p2align	2, 0x0
                                        ; -- End function
	.section	__TEXT,__text,regular,pure_instructions
	.private_extern	__ZNKSt3__16vectorIPN7sc_core15sc_trace_paramsENS_9allocatorIS3_EEE17__annotate_shrinkB8ne200100Em ; -- Begin function _ZNKSt3__16vectorIPN7sc_core15sc_trace_paramsENS_9allocatorIS3_EEE17__annotate_shrinkB8ne200100Em
	.globl	__ZNKSt3__16vectorIPN7sc_core15sc_trace_paramsENS_9allocatorIS3_EEE17__annotate_shrinkB8ne200100Em
	.weak_definition	__ZNKSt3__16vectorIPN7sc_core15sc_trace_paramsENS_9allocatorIS3_EEE17__annotate_shrinkB8ne200100Em
	.p2align	2
__ZNKSt3__16vectorIPN7sc_core15sc_trace_paramsENS_9allocatorIS3_EEE17__annotate_shrinkB8ne200100Em: ; @_ZNKSt3__16vectorIPN7sc_core15sc_trace_paramsENS_9allocatorIS3_EEE17__annotate_shrinkB8ne200100Em
	.cfi_startproc
; %bb.0:
	sub	sp, sp, #16
	.cfi_def_cfa_offset 16
	str	x0, [sp, #8]
	str	x1, [sp]
	add	sp, sp, #16
	ret
	.cfi_endproc
                                        ; -- End function
	.globl	__ZNSt3__116allocator_traitsINS_9allocatorIPN7sc_core15sc_trace_paramsEEEE7destroyB8ne200100IS4_TnNS_9enable_ifIXsr13__has_destroyIS5_PT_EE5valueEiE4typeELi0EEEvRS5_SA_ ; -- Begin function _ZNSt3__116allocator_traitsINS_9allocatorIPN7sc_core15sc_trace_paramsEEEE7destroyB8ne200100IS4_TnNS_9enable_ifIXsr13__has_destroyIS5_PT_EE5valueEiE4typeELi0EEEvRS5_SA_
	.weak_definition	__ZNSt3__116allocator_traitsINS_9allocatorIPN7sc_core15sc_trace_paramsEEEE7destroyB8ne200100IS4_TnNS_9enable_ifIXsr13__has_destroyIS5_PT_EE5valueEiE4typeELi0EEEvRS5_SA_
	.p2align	2
__ZNSt3__116allocator_traitsINS_9allocatorIPN7sc_core15sc_trace_paramsEEEE7destroyB8ne200100IS4_TnNS_9enable_ifIXsr13__has_destroyIS5_PT_EE5valueEiE4typeELi0EEEvRS5_SA_: ; @_ZNSt3__116allocator_traitsINS_9allocatorIPN7sc_core15sc_trace_paramsEEEE7destroyB8ne200100IS4_TnNS_9enable_ifIXsr13__has_destroyIS5_PT_EE5valueEiE4typeELi0EEEvRS5_SA_
	.cfi_startproc
; %bb.0:
	sub	sp, sp, #32
	stp	x29, x30, [sp, #16]             ; 16-byte Folded Spill
	add	x29, sp, #16
	.cfi_def_cfa w29, 16
	.cfi_offset w30, -8
	.cfi_offset w29, -16
	str	x0, [sp, #8]
	str	x1, [sp]
	ldr	x0, [sp, #8]
	ldr	x1, [sp]
	bl	__ZNSt3__19allocatorIPN7sc_core15sc_trace_paramsEE7destroyB8ne200100EPS3_
	ldp	x29, x30, [sp, #16]             ; 16-byte Folded Reload
	add	sp, sp, #32
	ret
	.cfi_endproc
                                        ; -- End function
	.private_extern	__ZNSt3__112__to_addressB8ne200100IPN7sc_core15sc_trace_paramsEEEPT_S5_ ; -- Begin function _ZNSt3__112__to_addressB8ne200100IPN7sc_core15sc_trace_paramsEEEPT_S5_
	.globl	__ZNSt3__112__to_addressB8ne200100IPN7sc_core15sc_trace_paramsEEEPT_S5_
	.weak_definition	__ZNSt3__112__to_addressB8ne200100IPN7sc_core15sc_trace_paramsEEEPT_S5_
	.p2align	2
__ZNSt3__112__to_addressB8ne200100IPN7sc_core15sc_trace_paramsEEEPT_S5_: ; @_ZNSt3__112__to_addressB8ne200100IPN7sc_core15sc_trace_paramsEEEPT_S5_
	.cfi_startproc
; %bb.0:
	sub	sp, sp, #16
	.cfi_def_cfa_offset 16
	str	x0, [sp, #8]
	ldr	x0, [sp, #8]
	add	sp, sp, #16
	ret
	.cfi_endproc
                                        ; -- End function
	.private_extern	__ZNSt3__19allocatorIPN7sc_core15sc_trace_paramsEE7destroyB8ne200100EPS3_ ; -- Begin function _ZNSt3__19allocatorIPN7sc_core15sc_trace_paramsEE7destroyB8ne200100EPS3_
	.globl	__ZNSt3__19allocatorIPN7sc_core15sc_trace_paramsEE7destroyB8ne200100EPS3_
	.weak_definition	__ZNSt3__19allocatorIPN7sc_core15sc_trace_paramsEE7destroyB8ne200100EPS3_
	.p2align	2
__ZNSt3__19allocatorIPN7sc_core15sc_trace_paramsEE7destroyB8ne200100EPS3_: ; @_ZNSt3__19allocatorIPN7sc_core15sc_trace_paramsEE7destroyB8ne200100EPS3_
	.cfi_startproc
; %bb.0:
	sub	sp, sp, #16
	.cfi_def_cfa_offset 16
	str	x0, [sp, #8]
	str	x1, [sp]
	add	sp, sp, #16
	ret
	.cfi_endproc
                                        ; -- End function
	.private_extern	__ZNSt3__19allocatorIPN7sc_core15sc_trace_paramsEE10deallocateB8ne200100EPS3_m ; -- Begin function _ZNSt3__19allocatorIPN7sc_core15sc_trace_paramsEE10deallocateB8ne200100EPS3_m
	.globl	__ZNSt3__19allocatorIPN7sc_core15sc_trace_paramsEE10deallocateB8ne200100EPS3_m
	.weak_definition	__ZNSt3__19allocatorIPN7sc_core15sc_trace_paramsEE10deallocateB8ne200100EPS3_m
	.p2align	2
__ZNSt3__19allocatorIPN7sc_core15sc_trace_paramsEE10deallocateB8ne200100EPS3_m: ; @_ZNSt3__19allocatorIPN7sc_core15sc_trace_paramsEE10deallocateB8ne200100EPS3_m
	.cfi_startproc
; %bb.0:
	sub	sp, sp, #48
	stp	x29, x30, [sp, #32]             ; 16-byte Folded Spill
	add	x29, sp, #32
	.cfi_def_cfa w29, 16
	.cfi_offset w30, -8
	.cfi_offset w29, -16
	stur	x0, [x29, #-8]
	str	x1, [sp, #16]
	str	x2, [sp, #8]
	ldr	x0, [sp, #16]
	ldr	x1, [sp, #8]
	mov	x2, #8                          ; =0x8
	bl	__ZNSt3__119__libcpp_deallocateB8ne200100IPN7sc_core15sc_trace_paramsEEEvPNS_15__type_identityIT_E4typeENS_15__element_countEm
	ldp	x29, x30, [sp, #32]             ; 16-byte Folded Reload
	add	sp, sp, #48
	ret
	.cfi_endproc
                                        ; -- End function
	.private_extern	__ZNSt3__119__libcpp_deallocateB8ne200100IPN7sc_core15sc_trace_paramsEEEvPNS_15__type_identityIT_E4typeENS_15__element_countEm ; -- Begin function _ZNSt3__119__libcpp_deallocateB8ne200100IPN7sc_core15sc_trace_paramsEEEvPNS_15__type_identityIT_E4typeENS_15__element_countEm
	.globl	__ZNSt3__119__libcpp_deallocateB8ne200100IPN7sc_core15sc_trace_paramsEEEvPNS_15__type_identityIT_E4typeENS_15__element_countEm
	.weak_definition	__ZNSt3__119__libcpp_deallocateB8ne200100IPN7sc_core15sc_trace_paramsEEEvPNS_15__type_identityIT_E4typeENS_15__element_countEm
	.p2align	2
__ZNSt3__119__libcpp_deallocateB8ne200100IPN7sc_core15sc_trace_paramsEEEvPNS_15__type_identityIT_E4typeENS_15__element_countEm: ; @_ZNSt3__119__libcpp_deallocateB8ne200100IPN7sc_core15sc_trace_paramsEEEvPNS_15__type_identityIT_E4typeENS_15__element_countEm
	.cfi_startproc
; %bb.0:
	sub	sp, sp, #64
	stp	x29, x30, [sp, #48]             ; 16-byte Folded Spill
	add	x29, sp, #48
	.cfi_def_cfa w29, 16
	.cfi_offset w30, -8
	.cfi_offset w29, -16
	stur	x0, [x29, #-8]
	stur	x1, [x29, #-16]
	str	x2, [sp, #24]
	ldur	x8, [x29, #-16]
	lsl	x8, x8, #3
	str	x8, [sp, #16]
	ldr	x0, [sp, #24]
	bl	__ZNSt3__124__is_overaligned_for_newB8ne200100Em
	tbz	w0, #0, LBB100_2
	b	LBB100_1
LBB100_1:
	ldr	x8, [sp, #24]
	str	x8, [sp, #8]
	ldur	x0, [x29, #-8]
	ldr	x1, [sp, #16]
	ldr	x2, [sp, #8]
	bl	__ZNSt3__124__libcpp_operator_deleteB8ne200100IJPPN7sc_core15sc_trace_paramsEmSt11align_val_tEEEvDpT_
	b	LBB100_3
LBB100_2:
	ldur	x0, [x29, #-8]
	ldr	x1, [sp, #16]
	bl	__ZNSt3__124__libcpp_operator_deleteB8ne200100IJPPN7sc_core15sc_trace_paramsEmEEEvDpT_
	b	LBB100_3
LBB100_3:
	ldp	x29, x30, [sp, #48]             ; 16-byte Folded Reload
	add	sp, sp, #64
	ret
	.cfi_endproc
                                        ; -- End function
	.private_extern	__ZNSt3__124__libcpp_operator_deleteB8ne200100IJPPN7sc_core15sc_trace_paramsEmSt11align_val_tEEEvDpT_ ; -- Begin function _ZNSt3__124__libcpp_operator_deleteB8ne200100IJPPN7sc_core15sc_trace_paramsEmSt11align_val_tEEEvDpT_
	.globl	__ZNSt3__124__libcpp_operator_deleteB8ne200100IJPPN7sc_core15sc_trace_paramsEmSt11align_val_tEEEvDpT_
	.weak_definition	__ZNSt3__124__libcpp_operator_deleteB8ne200100IJPPN7sc_core15sc_trace_paramsEmSt11align_val_tEEEvDpT_
	.p2align	2
__ZNSt3__124__libcpp_operator_deleteB8ne200100IJPPN7sc_core15sc_trace_paramsEmSt11align_val_tEEEvDpT_: ; @_ZNSt3__124__libcpp_operator_deleteB8ne200100IJPPN7sc_core15sc_trace_paramsEmSt11align_val_tEEEvDpT_
	.cfi_startproc
; %bb.0:
	sub	sp, sp, #48
	stp	x29, x30, [sp, #32]             ; 16-byte Folded Spill
	add	x29, sp, #32
	.cfi_def_cfa w29, 16
	.cfi_offset w30, -8
	.cfi_offset w29, -16
	stur	x0, [x29, #-8]
	str	x1, [sp, #16]
	str	x2, [sp, #8]
	ldur	x0, [x29, #-8]
	ldr	x1, [sp, #16]
	ldr	x2, [sp, #8]
	bl	__ZdlPvmSt11align_val_t
	ldp	x29, x30, [sp, #32]             ; 16-byte Folded Reload
	add	sp, sp, #48
	ret
	.cfi_endproc
                                        ; -- End function
	.private_extern	__ZNSt3__124__libcpp_operator_deleteB8ne200100IJPPN7sc_core15sc_trace_paramsEmEEEvDpT_ ; -- Begin function _ZNSt3__124__libcpp_operator_deleteB8ne200100IJPPN7sc_core15sc_trace_paramsEmEEEvDpT_
	.globl	__ZNSt3__124__libcpp_operator_deleteB8ne200100IJPPN7sc_core15sc_trace_paramsEmEEEvDpT_
	.weak_definition	__ZNSt3__124__libcpp_operator_deleteB8ne200100IJPPN7sc_core15sc_trace_paramsEmEEEvDpT_
	.p2align	2
__ZNSt3__124__libcpp_operator_deleteB8ne200100IJPPN7sc_core15sc_trace_paramsEmEEEvDpT_: ; @_ZNSt3__124__libcpp_operator_deleteB8ne200100IJPPN7sc_core15sc_trace_paramsEmEEEvDpT_
	.cfi_startproc
; %bb.0:
	sub	sp, sp, #32
	stp	x29, x30, [sp, #16]             ; 16-byte Folded Spill
	add	x29, sp, #16
	.cfi_def_cfa w29, 16
	.cfi_offset w30, -8
	.cfi_offset w29, -16
	str	x0, [sp, #8]
	str	x1, [sp]
	ldr	x0, [sp, #8]
	ldr	x1, [sp]
	bl	__ZdlPvm
	ldp	x29, x30, [sp, #16]             ; 16-byte Folded Reload
	add	sp, sp, #32
	ret
	.cfi_endproc
                                        ; -- End function
	.private_extern	__ZNSt3__110type_indexC1B8ne200100ERKSt9type_info ; -- Begin function _ZNSt3__110type_indexC1B8ne200100ERKSt9type_info
	.globl	__ZNSt3__110type_indexC1B8ne200100ERKSt9type_info
	.weak_def_can_be_hidden	__ZNSt3__110type_indexC1B8ne200100ERKSt9type_info
	.p2align	2
__ZNSt3__110type_indexC1B8ne200100ERKSt9type_info: ; @_ZNSt3__110type_indexC1B8ne200100ERKSt9type_info
	.cfi_startproc
; %bb.0:
	sub	sp, sp, #48
	stp	x29, x30, [sp, #32]             ; 16-byte Folded Spill
	add	x29, sp, #32
	.cfi_def_cfa w29, 16
	.cfi_offset w30, -8
	.cfi_offset w29, -16
	stur	x0, [x29, #-8]
	str	x1, [sp, #16]
	ldur	x0, [x29, #-8]
	str	x0, [sp, #8]                    ; 8-byte Folded Spill
	ldr	x1, [sp, #16]
	bl	__ZNSt3__110type_indexC2B8ne200100ERKSt9type_info
	ldr	x0, [sp, #8]                    ; 8-byte Folded Reload
	ldp	x29, x30, [sp, #32]             ; 16-byte Folded Reload
	add	sp, sp, #48
	ret
	.cfi_endproc
                                        ; -- End function
	.private_extern	__ZNSt3__110type_indexC2B8ne200100ERKSt9type_info ; -- Begin function _ZNSt3__110type_indexC2B8ne200100ERKSt9type_info
	.globl	__ZNSt3__110type_indexC2B8ne200100ERKSt9type_info
	.weak_def_can_be_hidden	__ZNSt3__110type_indexC2B8ne200100ERKSt9type_info
	.p2align	2
__ZNSt3__110type_indexC2B8ne200100ERKSt9type_info: ; @_ZNSt3__110type_indexC2B8ne200100ERKSt9type_info
	.cfi_startproc
; %bb.0:
	sub	sp, sp, #16
	.cfi_def_cfa_offset 16
	str	x0, [sp, #8]
	str	x1, [sp]
	ldr	x0, [sp, #8]
	ldr	x8, [sp]
	str	x8, [x0]
	add	sp, sp, #16
	ret
	.cfi_endproc
                                        ; -- End function
	.globl	__ZNK7sc_core9sc_port_bINS_18sc_signal_inout_ifIiEEE4sizeEv ; -- Begin function _ZNK7sc_core9sc_port_bINS_18sc_signal_inout_ifIiEEE4sizeEv
	.weak_definition	__ZNK7sc_core9sc_port_bINS_18sc_signal_inout_ifIiEEE4sizeEv
	.p2align	2
__ZNK7sc_core9sc_port_bINS_18sc_signal_inout_ifIiEEE4sizeEv: ; @_ZNK7sc_core9sc_port_bINS_18sc_signal_inout_ifIiEEE4sizeEv
	.cfi_startproc
; %bb.0:
	sub	sp, sp, #32
	stp	x29, x30, [sp, #16]             ; 16-byte Folded Spill
	add	x29, sp, #16
	.cfi_def_cfa w29, 16
	.cfi_offset w30, -8
	.cfi_offset w29, -16
	str	x0, [sp, #8]
	ldr	x8, [sp, #8]
	add	x0, x8, #72
	bl	__ZNKSt3__16vectorIPN7sc_core18sc_signal_inout_ifIiEENS_9allocatorIS4_EEE4sizeB8ne200100Ev
                                        ; kill: def $w0 killed $w0 killed $x0
	ldp	x29, x30, [sp, #16]             ; 16-byte Folded Reload
	add	sp, sp, #32
	ret
	.cfi_endproc
                                        ; -- End function
	.private_extern	__ZNSt3__16vectorIPN7sc_core18sc_signal_inout_ifIiEENS_9allocatorIS4_EEEixB8ne200100Em ; -- Begin function _ZNSt3__16vectorIPN7sc_core18sc_signal_inout_ifIiEENS_9allocatorIS4_EEEixB8ne200100Em
	.globl	__ZNSt3__16vectorIPN7sc_core18sc_signal_inout_ifIiEENS_9allocatorIS4_EEEixB8ne200100Em
	.weak_definition	__ZNSt3__16vectorIPN7sc_core18sc_signal_inout_ifIiEENS_9allocatorIS4_EEEixB8ne200100Em
	.p2align	2
__ZNSt3__16vectorIPN7sc_core18sc_signal_inout_ifIiEENS_9allocatorIS4_EEEixB8ne200100Em: ; @_ZNSt3__16vectorIPN7sc_core18sc_signal_inout_ifIiEENS_9allocatorIS4_EEEixB8ne200100Em
	.cfi_startproc
; %bb.0:
	sub	sp, sp, #16
	.cfi_def_cfa_offset 16
	str	x0, [sp, #8]
	str	x1, [sp]
	ldr	x8, [sp, #8]
	ldr	x8, [x8]
	ldr	x9, [sp]
	add	x0, x8, x9, lsl #3
	add	sp, sp, #16
	ret
	.cfi_endproc
                                        ; -- End function
	.private_extern	__ZNSt3__16vectorIPN7sc_core18sc_signal_inout_ifIiEENS_9allocatorIS4_EEE9push_backB8ne200100ERKS4_ ; -- Begin function _ZNSt3__16vectorIPN7sc_core18sc_signal_inout_ifIiEENS_9allocatorIS4_EEE9push_backB8ne200100ERKS4_
	.globl	__ZNSt3__16vectorIPN7sc_core18sc_signal_inout_ifIiEENS_9allocatorIS4_EEE9push_backB8ne200100ERKS4_
	.weak_definition	__ZNSt3__16vectorIPN7sc_core18sc_signal_inout_ifIiEENS_9allocatorIS4_EEE9push_backB8ne200100ERKS4_
	.p2align	2
__ZNSt3__16vectorIPN7sc_core18sc_signal_inout_ifIiEENS_9allocatorIS4_EEE9push_backB8ne200100ERKS4_: ; @_ZNSt3__16vectorIPN7sc_core18sc_signal_inout_ifIiEENS_9allocatorIS4_EEE9push_backB8ne200100ERKS4_
	.cfi_startproc
; %bb.0:
	sub	sp, sp, #32
	stp	x29, x30, [sp, #16]             ; 16-byte Folded Spill
	add	x29, sp, #16
	.cfi_def_cfa w29, 16
	.cfi_offset w30, -8
	.cfi_offset w29, -16
	str	x0, [sp, #8]
	str	x1, [sp]
	ldr	x0, [sp, #8]
	ldr	x1, [sp]
	bl	__ZNSt3__16vectorIPN7sc_core18sc_signal_inout_ifIiEENS_9allocatorIS4_EEE12emplace_backIJRKS4_EEERS4_DpOT_
	ldp	x29, x30, [sp, #16]             ; 16-byte Folded Reload
	add	sp, sp, #32
	ret
	.cfi_endproc
                                        ; -- End function
	.globl	__ZNSt3__16vectorIPN7sc_core18sc_signal_inout_ifIiEENS_9allocatorIS4_EEE12emplace_backIJRKS4_EEERS4_DpOT_ ; -- Begin function _ZNSt3__16vectorIPN7sc_core18sc_signal_inout_ifIiEENS_9allocatorIS4_EEE12emplace_backIJRKS4_EEERS4_DpOT_
	.weak_definition	__ZNSt3__16vectorIPN7sc_core18sc_signal_inout_ifIiEENS_9allocatorIS4_EEE12emplace_backIJRKS4_EEERS4_DpOT_
	.p2align	2
__ZNSt3__16vectorIPN7sc_core18sc_signal_inout_ifIiEENS_9allocatorIS4_EEE12emplace_backIJRKS4_EEERS4_DpOT_: ; @_ZNSt3__16vectorIPN7sc_core18sc_signal_inout_ifIiEENS_9allocatorIS4_EEE12emplace_backIJRKS4_EEERS4_DpOT_
	.cfi_startproc
; %bb.0:
	sub	sp, sp, #48
	stp	x29, x30, [sp, #32]             ; 16-byte Folded Spill
	add	x29, sp, #32
	.cfi_def_cfa w29, 16
	.cfi_offset w30, -8
	.cfi_offset w29, -16
	stur	x0, [x29, #-8]
	str	x1, [sp, #16]
	ldur	x9, [x29, #-8]
	str	x9, [sp]                        ; 8-byte Folded Spill
	ldr	x8, [x9, #8]
	str	x8, [sp, #8]
	ldr	x8, [sp, #8]
	ldr	x9, [x9, #16]
	subs	x8, x8, x9
	b.hs	LBB108_2
	b	LBB108_1
LBB108_1:
	ldr	x0, [sp]                        ; 8-byte Folded Reload
	ldr	x1, [sp, #16]
	bl	__ZNSt3__16vectorIPN7sc_core18sc_signal_inout_ifIiEENS_9allocatorIS4_EEE22__construct_one_at_endB8ne200100IJRKS4_EEEvDpOT_
	ldr	x8, [sp, #8]
	add	x8, x8, #8
	str	x8, [sp, #8]
	b	LBB108_3
LBB108_2:
	ldr	x0, [sp]                        ; 8-byte Folded Reload
	ldr	x1, [sp, #16]
	bl	__ZNSt3__16vectorIPN7sc_core18sc_signal_inout_ifIiEENS_9allocatorIS4_EEE24__emplace_back_slow_pathIJRKS4_EEEPS4_DpOT_
	str	x0, [sp, #8]
	b	LBB108_3
LBB108_3:
	ldr	x9, [sp]                        ; 8-byte Folded Reload
	ldr	x8, [sp, #8]
	str	x8, [x9, #8]
	ldr	x8, [sp, #8]
	subs	x0, x8, #8
	ldp	x29, x30, [sp, #32]             ; 16-byte Folded Reload
	add	sp, sp, #48
	ret
	.cfi_endproc
                                        ; -- End function
	.globl	__ZNSt3__16vectorIPN7sc_core18sc_signal_inout_ifIiEENS_9allocatorIS4_EEE22__construct_one_at_endB8ne200100IJRKS4_EEEvDpOT_ ; -- Begin function _ZNSt3__16vectorIPN7sc_core18sc_signal_inout_ifIiEENS_9allocatorIS4_EEE22__construct_one_at_endB8ne200100IJRKS4_EEEvDpOT_
	.weak_definition	__ZNSt3__16vectorIPN7sc_core18sc_signal_inout_ifIiEENS_9allocatorIS4_EEE22__construct_one_at_endB8ne200100IJRKS4_EEEvDpOT_
	.p2align	2
__ZNSt3__16vectorIPN7sc_core18sc_signal_inout_ifIiEENS_9allocatorIS4_EEE22__construct_one_at_endB8ne200100IJRKS4_EEEvDpOT_: ; @_ZNSt3__16vectorIPN7sc_core18sc_signal_inout_ifIiEENS_9allocatorIS4_EEE22__construct_one_at_endB8ne200100IJRKS4_EEEvDpOT_
Lfunc_begin9:
	.cfi_startproc
	.cfi_personality 155, ___gxx_personality_v0
	.cfi_lsda 16, Lexception9
; %bb.0:
	sub	sp, sp, #80
	stp	x29, x30, [sp, #64]             ; 16-byte Folded Spill
	add	x29, sp, #64
	.cfi_def_cfa w29, 16
	.cfi_offset w30, -8
	.cfi_offset w29, -16
	stur	x0, [x29, #-8]
	stur	x1, [x29, #-16]
	ldur	x1, [x29, #-8]
	str	x1, [sp]                        ; 8-byte Folded Spill
	add	x0, sp, #24
	mov	x2, #1                          ; =0x1
	bl	__ZNSt3__16vectorIPN7sc_core18sc_signal_inout_ifIiEENS_9allocatorIS4_EEE21_ConstructTransactionC1B8ne200100ERS7_m
	ldr	x0, [sp, #32]
	bl	__ZNSt3__112__to_addressB8ne200100IPN7sc_core18sc_signal_inout_ifIiEEEEPT_S6_
	mov	x1, x0
	ldr	x0, [sp]                        ; 8-byte Folded Reload
	ldur	x2, [x29, #-16]
Ltmp107:
	bl	__ZNSt3__116allocator_traitsINS_9allocatorIPN7sc_core18sc_signal_inout_ifIiEEEEE9constructB8ne200100IS5_JRKS5_ETnNS_9enable_ifIXsr15__has_constructIS6_PT_DpT0_EE5valueEiE4typeELi0EEEvRS6_SD_DpOSE_
Ltmp108:
	b	LBB109_1
LBB109_1:
	add	x0, sp, #24
	ldr	x8, [sp, #32]
	add	x8, x8, #8
	str	x8, [sp, #32]
	bl	__ZNSt3__16vectorIPN7sc_core18sc_signal_inout_ifIiEENS_9allocatorIS4_EEE21_ConstructTransactionD1B8ne200100Ev
	ldp	x29, x30, [sp, #64]             ; 16-byte Folded Reload
	add	sp, sp, #80
	ret
LBB109_2:
Ltmp109:
	str	x0, [sp, #16]
	mov	x8, x1
	str	w8, [sp, #12]
	add	x0, sp, #24
	bl	__ZNSt3__16vectorIPN7sc_core18sc_signal_inout_ifIiEENS_9allocatorIS4_EEE21_ConstructTransactionD1B8ne200100Ev
	b	LBB109_3
LBB109_3:
	ldr	x0, [sp, #16]
	bl	__Unwind_Resume
Lfunc_end9:
	.cfi_endproc
	.section	__TEXT,__gcc_except_tab
	.p2align	2, 0x0
GCC_except_table109:
Lexception9:
	.byte	255                             ; @LPStart Encoding = omit
	.byte	255                             ; @TType Encoding = omit
	.byte	1                               ; Call site Encoding = uleb128
	.uleb128 Lcst_end9-Lcst_begin9
Lcst_begin9:
	.uleb128 Lfunc_begin9-Lfunc_begin9      ; >> Call Site 1 <<
	.uleb128 Ltmp107-Lfunc_begin9           ;   Call between Lfunc_begin9 and Ltmp107
	.byte	0                               ;     has no landing pad
	.byte	0                               ;   On action: cleanup
	.uleb128 Ltmp107-Lfunc_begin9           ; >> Call Site 2 <<
	.uleb128 Ltmp108-Ltmp107                ;   Call between Ltmp107 and Ltmp108
	.uleb128 Ltmp109-Lfunc_begin9           ;     jumps to Ltmp109
	.byte	0                               ;   On action: cleanup
	.uleb128 Ltmp108-Lfunc_begin9           ; >> Call Site 3 <<
	.uleb128 Lfunc_end9-Ltmp108             ;   Call between Ltmp108 and Lfunc_end9
	.byte	0                               ;     has no landing pad
	.byte	0                               ;   On action: cleanup
Lcst_end9:
	.p2align	2, 0x0
                                        ; -- End function
	.section	__TEXT,__text,regular,pure_instructions
	.globl	__ZNSt3__16vectorIPN7sc_core18sc_signal_inout_ifIiEENS_9allocatorIS4_EEE24__emplace_back_slow_pathIJRKS4_EEEPS4_DpOT_ ; -- Begin function _ZNSt3__16vectorIPN7sc_core18sc_signal_inout_ifIiEENS_9allocatorIS4_EEE24__emplace_back_slow_pathIJRKS4_EEEPS4_DpOT_
	.weak_definition	__ZNSt3__16vectorIPN7sc_core18sc_signal_inout_ifIiEENS_9allocatorIS4_EEE24__emplace_back_slow_pathIJRKS4_EEEPS4_DpOT_
	.p2align	2
__ZNSt3__16vectorIPN7sc_core18sc_signal_inout_ifIiEENS_9allocatorIS4_EEE24__emplace_back_slow_pathIJRKS4_EEEPS4_DpOT_: ; @_ZNSt3__16vectorIPN7sc_core18sc_signal_inout_ifIiEENS_9allocatorIS4_EEE24__emplace_back_slow_pathIJRKS4_EEEPS4_DpOT_
Lfunc_begin10:
	.cfi_startproc
	.cfi_personality 155, ___gxx_personality_v0
	.cfi_lsda 16, Lexception10
; %bb.0:
	sub	sp, sp, #112
	stp	x29, x30, [sp, #96]             ; 16-byte Folded Spill
	add	x29, sp, #96
	.cfi_def_cfa w29, 16
	.cfi_offset w30, -8
	.cfi_offset w29, -16
	stur	x0, [x29, #-8]
	stur	x1, [x29, #-16]
	ldur	x0, [x29, #-8]
	str	x0, [sp, #16]                   ; 8-byte Folded Spill
	bl	__ZNKSt3__16vectorIPN7sc_core18sc_signal_inout_ifIiEENS_9allocatorIS4_EEE4sizeB8ne200100Ev
	mov	x8, x0
	ldr	x0, [sp, #16]                   ; 8-byte Folded Reload
	add	x1, x8, #1
	bl	__ZNKSt3__16vectorIPN7sc_core18sc_signal_inout_ifIiEENS_9allocatorIS4_EEE11__recommendB8ne200100Em
	mov	x1, x0
	ldr	x0, [sp, #16]                   ; 8-byte Folded Reload
	str	x1, [sp, #8]                    ; 8-byte Folded Spill
	bl	__ZNKSt3__16vectorIPN7sc_core18sc_signal_inout_ifIiEENS_9allocatorIS4_EEE4sizeB8ne200100Ev
	ldr	x1, [sp, #8]                    ; 8-byte Folded Reload
	ldr	x3, [sp, #16]                   ; 8-byte Folded Reload
	mov	x2, x0
	add	x0, sp, #40
	bl	__ZNSt3__114__split_bufferIPN7sc_core18sc_signal_inout_ifIiEERNS_9allocatorIS4_EEEC1EmmS7_
	ldr	x0, [sp, #56]
	bl	__ZNSt3__112__to_addressB8ne200100IPN7sc_core18sc_signal_inout_ifIiEEEEPT_S6_
	mov	x1, x0
	ldr	x0, [sp, #16]                   ; 8-byte Folded Reload
	ldur	x2, [x29, #-16]
Ltmp110:
	bl	__ZNSt3__116allocator_traitsINS_9allocatorIPN7sc_core18sc_signal_inout_ifIiEEEEE9constructB8ne200100IS5_JRKS5_ETnNS_9enable_ifIXsr15__has_constructIS6_PT_DpT0_EE5valueEiE4typeELi0EEEvRS6_SD_DpOSE_
Ltmp111:
	b	LBB110_1
LBB110_1:
	ldr	x0, [sp, #16]                   ; 8-byte Folded Reload
	add	x1, sp, #40
	ldr	x8, [sp, #56]
	add	x8, x8, #8
	str	x8, [sp, #56]
Ltmp112:
	bl	__ZNSt3__16vectorIPN7sc_core18sc_signal_inout_ifIiEENS_9allocatorIS4_EEE26__swap_out_circular_bufferERNS_14__split_bufferIS4_RS6_EE
Ltmp113:
	b	LBB110_2
LBB110_2:
	ldr	x8, [sp, #16]                   ; 8-byte Folded Reload
	ldr	x8, [x8, #8]
	str	x8, [sp]                        ; 8-byte Folded Spill
	add	x0, sp, #40
	bl	__ZNSt3__114__split_bufferIPN7sc_core18sc_signal_inout_ifIiEERNS_9allocatorIS4_EEED1Ev
	ldr	x0, [sp]                        ; 8-byte Folded Reload
	ldp	x29, x30, [sp, #96]             ; 16-byte Folded Reload
	add	sp, sp, #112
	ret
LBB110_3:
Ltmp114:
	str	x0, [sp, #32]
	mov	x8, x1
	str	w8, [sp, #28]
	add	x0, sp, #40
	bl	__ZNSt3__114__split_bufferIPN7sc_core18sc_signal_inout_ifIiEERNS_9allocatorIS4_EEED1Ev
	b	LBB110_4
LBB110_4:
	ldr	x0, [sp, #32]
	bl	__Unwind_Resume
Lfunc_end10:
	.cfi_endproc
	.section	__TEXT,__gcc_except_tab
	.p2align	2, 0x0
GCC_except_table110:
Lexception10:
	.byte	255                             ; @LPStart Encoding = omit
	.byte	255                             ; @TType Encoding = omit
	.byte	1                               ; Call site Encoding = uleb128
	.uleb128 Lcst_end10-Lcst_begin10
Lcst_begin10:
	.uleb128 Lfunc_begin10-Lfunc_begin10    ; >> Call Site 1 <<
	.uleb128 Ltmp110-Lfunc_begin10          ;   Call between Lfunc_begin10 and Ltmp110
	.byte	0                               ;     has no landing pad
	.byte	0                               ;   On action: cleanup
	.uleb128 Ltmp110-Lfunc_begin10          ; >> Call Site 2 <<
	.uleb128 Ltmp113-Ltmp110                ;   Call between Ltmp110 and Ltmp113
	.uleb128 Ltmp114-Lfunc_begin10          ;     jumps to Ltmp114
	.byte	0                               ;   On action: cleanup
	.uleb128 Ltmp113-Lfunc_begin10          ; >> Call Site 3 <<
	.uleb128 Lfunc_end10-Ltmp113            ;   Call between Ltmp113 and Lfunc_end10
	.byte	0                               ;     has no landing pad
	.byte	0                               ;   On action: cleanup
Lcst_end10:
	.p2align	2, 0x0
                                        ; -- End function
	.section	__TEXT,__text,regular,pure_instructions
	.private_extern	__ZNSt3__16vectorIPN7sc_core18sc_signal_inout_ifIiEENS_9allocatorIS4_EEE21_ConstructTransactionC1B8ne200100ERS7_m ; -- Begin function _ZNSt3__16vectorIPN7sc_core18sc_signal_inout_ifIiEENS_9allocatorIS4_EEE21_ConstructTransactionC1B8ne200100ERS7_m
	.globl	__ZNSt3__16vectorIPN7sc_core18sc_signal_inout_ifIiEENS_9allocatorIS4_EEE21_ConstructTransactionC1B8ne200100ERS7_m
	.weak_def_can_be_hidden	__ZNSt3__16vectorIPN7sc_core18sc_signal_inout_ifIiEENS_9allocatorIS4_EEE21_ConstructTransactionC1B8ne200100ERS7_m
	.p2align	2
__ZNSt3__16vectorIPN7sc_core18sc_signal_inout_ifIiEENS_9allocatorIS4_EEE21_ConstructTransactionC1B8ne200100ERS7_m: ; @_ZNSt3__16vectorIPN7sc_core18sc_signal_inout_ifIiEENS_9allocatorIS4_EEE21_ConstructTransactionC1B8ne200100ERS7_m
	.cfi_startproc
; %bb.0:
	sub	sp, sp, #48
	stp	x29, x30, [sp, #32]             ; 16-byte Folded Spill
	add	x29, sp, #32
	.cfi_def_cfa w29, 16
	.cfi_offset w30, -8
	.cfi_offset w29, -16
	stur	x0, [x29, #-8]
	str	x1, [sp, #16]
	str	x2, [sp, #8]
	ldur	x0, [x29, #-8]
	str	x0, [sp]                        ; 8-byte Folded Spill
	ldr	x1, [sp, #16]
	ldr	x2, [sp, #8]
	bl	__ZNSt3__16vectorIPN7sc_core18sc_signal_inout_ifIiEENS_9allocatorIS4_EEE21_ConstructTransactionC2B8ne200100ERS7_m
	ldr	x0, [sp]                        ; 8-byte Folded Reload
	ldp	x29, x30, [sp, #32]             ; 16-byte Folded Reload
	add	sp, sp, #48
	ret
	.cfi_endproc
                                        ; -- End function
	.globl	__ZNSt3__116allocator_traitsINS_9allocatorIPN7sc_core18sc_signal_inout_ifIiEEEEE9constructB8ne200100IS5_JRKS5_ETnNS_9enable_ifIXsr15__has_constructIS6_PT_DpT0_EE5valueEiE4typeELi0EEEvRS6_SD_DpOSE_ ; -- Begin function _ZNSt3__116allocator_traitsINS_9allocatorIPN7sc_core18sc_signal_inout_ifIiEEEEE9constructB8ne200100IS5_JRKS5_ETnNS_9enable_ifIXsr15__has_constructIS6_PT_DpT0_EE5valueEiE4typeELi0EEEvRS6_SD_DpOSE_
	.weak_definition	__ZNSt3__116allocator_traitsINS_9allocatorIPN7sc_core18sc_signal_inout_ifIiEEEEE9constructB8ne200100IS5_JRKS5_ETnNS_9enable_ifIXsr15__has_constructIS6_PT_DpT0_EE5valueEiE4typeELi0EEEvRS6_SD_DpOSE_
	.p2align	2
__ZNSt3__116allocator_traitsINS_9allocatorIPN7sc_core18sc_signal_inout_ifIiEEEEE9constructB8ne200100IS5_JRKS5_ETnNS_9enable_ifIXsr15__has_constructIS6_PT_DpT0_EE5valueEiE4typeELi0EEEvRS6_SD_DpOSE_: ; @_ZNSt3__116allocator_traitsINS_9allocatorIPN7sc_core18sc_signal_inout_ifIiEEEEE9constructB8ne200100IS5_JRKS5_ETnNS_9enable_ifIXsr15__has_constructIS6_PT_DpT0_EE5valueEiE4typeELi0EEEvRS6_SD_DpOSE_
	.cfi_startproc
; %bb.0:
	sub	sp, sp, #48
	stp	x29, x30, [sp, #32]             ; 16-byte Folded Spill
	add	x29, sp, #32
	.cfi_def_cfa w29, 16
	.cfi_offset w30, -8
	.cfi_offset w29, -16
	stur	x0, [x29, #-8]
	str	x1, [sp, #16]
	str	x2, [sp, #8]
	ldur	x0, [x29, #-8]
	ldr	x1, [sp, #16]
	ldr	x2, [sp, #8]
	bl	__ZNSt3__19allocatorIPN7sc_core18sc_signal_inout_ifIiEEE9constructB8ne200100IS4_JRKS4_EEEvPT_DpOT0_
	ldp	x29, x30, [sp, #32]             ; 16-byte Folded Reload
	add	sp, sp, #48
	ret
	.cfi_endproc
                                        ; -- End function
	.private_extern	__ZNSt3__16vectorIPN7sc_core18sc_signal_inout_ifIiEENS_9allocatorIS4_EEE21_ConstructTransactionD1B8ne200100Ev ; -- Begin function _ZNSt3__16vectorIPN7sc_core18sc_signal_inout_ifIiEENS_9allocatorIS4_EEE21_ConstructTransactionD1B8ne200100Ev
	.globl	__ZNSt3__16vectorIPN7sc_core18sc_signal_inout_ifIiEENS_9allocatorIS4_EEE21_ConstructTransactionD1B8ne200100Ev
	.weak_def_can_be_hidden	__ZNSt3__16vectorIPN7sc_core18sc_signal_inout_ifIiEENS_9allocatorIS4_EEE21_ConstructTransactionD1B8ne200100Ev
	.p2align	2
__ZNSt3__16vectorIPN7sc_core18sc_signal_inout_ifIiEENS_9allocatorIS4_EEE21_ConstructTransactionD1B8ne200100Ev: ; @_ZNSt3__16vectorIPN7sc_core18sc_signal_inout_ifIiEENS_9allocatorIS4_EEE21_ConstructTransactionD1B8ne200100Ev
	.cfi_startproc
; %bb.0:
	sub	sp, sp, #32
	stp	x29, x30, [sp, #16]             ; 16-byte Folded Spill
	add	x29, sp, #16
	.cfi_def_cfa w29, 16
	.cfi_offset w30, -8
	.cfi_offset w29, -16
	str	x0, [sp, #8]
	ldr	x0, [sp, #8]
	str	x0, [sp]                        ; 8-byte Folded Spill
	bl	__ZNSt3__16vectorIPN7sc_core18sc_signal_inout_ifIiEENS_9allocatorIS4_EEE21_ConstructTransactionD2B8ne200100Ev
	ldr	x0, [sp]                        ; 8-byte Folded Reload
	ldp	x29, x30, [sp, #16]             ; 16-byte Folded Reload
	add	sp, sp, #32
	ret
	.cfi_endproc
                                        ; -- End function
	.private_extern	__ZNSt3__16vectorIPN7sc_core18sc_signal_inout_ifIiEENS_9allocatorIS4_EEE21_ConstructTransactionC2B8ne200100ERS7_m ; -- Begin function _ZNSt3__16vectorIPN7sc_core18sc_signal_inout_ifIiEENS_9allocatorIS4_EEE21_ConstructTransactionC2B8ne200100ERS7_m
	.globl	__ZNSt3__16vectorIPN7sc_core18sc_signal_inout_ifIiEENS_9allocatorIS4_EEE21_ConstructTransactionC2B8ne200100ERS7_m
	.weak_def_can_be_hidden	__ZNSt3__16vectorIPN7sc_core18sc_signal_inout_ifIiEENS_9allocatorIS4_EEE21_ConstructTransactionC2B8ne200100ERS7_m
	.p2align	2
__ZNSt3__16vectorIPN7sc_core18sc_signal_inout_ifIiEENS_9allocatorIS4_EEE21_ConstructTransactionC2B8ne200100ERS7_m: ; @_ZNSt3__16vectorIPN7sc_core18sc_signal_inout_ifIiEENS_9allocatorIS4_EEE21_ConstructTransactionC2B8ne200100ERS7_m
	.cfi_startproc
; %bb.0:
	sub	sp, sp, #32
	.cfi_def_cfa_offset 32
	str	x0, [sp, #24]
	str	x1, [sp, #16]
	str	x2, [sp, #8]
	ldr	x0, [sp, #24]
	ldr	x8, [sp, #16]
	str	x8, [x0]
	ldr	x8, [sp, #16]
	ldr	x8, [x8, #8]
	str	x8, [x0, #8]
	ldr	x8, [sp, #16]
	ldr	x8, [x8, #8]
	ldr	x9, [sp, #8]
	add	x8, x8, x9, lsl #3
	str	x8, [x0, #16]
	add	sp, sp, #32
	ret
	.cfi_endproc
                                        ; -- End function
	.globl	__ZNSt3__19allocatorIPN7sc_core18sc_signal_inout_ifIiEEE9constructB8ne200100IS4_JRKS4_EEEvPT_DpOT0_ ; -- Begin function _ZNSt3__19allocatorIPN7sc_core18sc_signal_inout_ifIiEEE9constructB8ne200100IS4_JRKS4_EEEvPT_DpOT0_
	.weak_definition	__ZNSt3__19allocatorIPN7sc_core18sc_signal_inout_ifIiEEE9constructB8ne200100IS4_JRKS4_EEEvPT_DpOT0_
	.p2align	2
__ZNSt3__19allocatorIPN7sc_core18sc_signal_inout_ifIiEEE9constructB8ne200100IS4_JRKS4_EEEvPT_DpOT0_: ; @_ZNSt3__19allocatorIPN7sc_core18sc_signal_inout_ifIiEEE9constructB8ne200100IS4_JRKS4_EEEvPT_DpOT0_
	.cfi_startproc
; %bb.0:
	sub	sp, sp, #32
	.cfi_def_cfa_offset 32
	str	x0, [sp, #24]
	str	x1, [sp, #16]
	str	x2, [sp, #8]
	ldr	x9, [sp, #16]
	ldr	x8, [sp, #8]
	ldr	x8, [x8]
	str	x8, [x9]
	add	sp, sp, #32
	ret
	.cfi_endproc
                                        ; -- End function
	.private_extern	__ZNSt3__16vectorIPN7sc_core18sc_signal_inout_ifIiEENS_9allocatorIS4_EEE21_ConstructTransactionD2B8ne200100Ev ; -- Begin function _ZNSt3__16vectorIPN7sc_core18sc_signal_inout_ifIiEENS_9allocatorIS4_EEE21_ConstructTransactionD2B8ne200100Ev
	.globl	__ZNSt3__16vectorIPN7sc_core18sc_signal_inout_ifIiEENS_9allocatorIS4_EEE21_ConstructTransactionD2B8ne200100Ev
	.weak_def_can_be_hidden	__ZNSt3__16vectorIPN7sc_core18sc_signal_inout_ifIiEENS_9allocatorIS4_EEE21_ConstructTransactionD2B8ne200100Ev
	.p2align	2
__ZNSt3__16vectorIPN7sc_core18sc_signal_inout_ifIiEENS_9allocatorIS4_EEE21_ConstructTransactionD2B8ne200100Ev: ; @_ZNSt3__16vectorIPN7sc_core18sc_signal_inout_ifIiEENS_9allocatorIS4_EEE21_ConstructTransactionD2B8ne200100Ev
	.cfi_startproc
; %bb.0:
	sub	sp, sp, #16
	.cfi_def_cfa_offset 16
	str	x0, [sp, #8]
	ldr	x0, [sp, #8]
	ldr	x8, [x0, #8]
	ldr	x9, [x0]
	str	x8, [x9, #8]
	add	sp, sp, #16
	ret
	.cfi_endproc
                                        ; -- End function
	.private_extern	__ZNKSt3__16vectorIPN7sc_core18sc_signal_inout_ifIiEENS_9allocatorIS4_EEE11__recommendB8ne200100Em ; -- Begin function _ZNKSt3__16vectorIPN7sc_core18sc_signal_inout_ifIiEENS_9allocatorIS4_EEE11__recommendB8ne200100Em
	.globl	__ZNKSt3__16vectorIPN7sc_core18sc_signal_inout_ifIiEENS_9allocatorIS4_EEE11__recommendB8ne200100Em
	.weak_definition	__ZNKSt3__16vectorIPN7sc_core18sc_signal_inout_ifIiEENS_9allocatorIS4_EEE11__recommendB8ne200100Em
	.p2align	2
__ZNKSt3__16vectorIPN7sc_core18sc_signal_inout_ifIiEENS_9allocatorIS4_EEE11__recommendB8ne200100Em: ; @_ZNKSt3__16vectorIPN7sc_core18sc_signal_inout_ifIiEENS_9allocatorIS4_EEE11__recommendB8ne200100Em
	.cfi_startproc
; %bb.0:
	sub	sp, sp, #80
	stp	x29, x30, [sp, #64]             ; 16-byte Folded Spill
	add	x29, sp, #64
	.cfi_def_cfa w29, 16
	.cfi_offset w30, -8
	.cfi_offset w29, -16
	stur	x0, [x29, #-16]
	stur	x1, [x29, #-24]
	ldur	x0, [x29, #-16]
	str	x0, [sp, #8]                    ; 8-byte Folded Spill
	bl	__ZNKSt3__16vectorIPN7sc_core18sc_signal_inout_ifIiEENS_9allocatorIS4_EEE8max_sizeB8ne200100Ev
	str	x0, [sp, #32]
	ldur	x8, [x29, #-24]
	ldr	x9, [sp, #32]
	subs	x8, x8, x9
	b.ls	LBB117_2
	b	LBB117_1
LBB117_1:
	bl	__ZNSt3__16vectorIPN7sc_core18sc_signal_inout_ifIiEENS_9allocatorIS4_EEE20__throw_length_errorB8ne200100Ev
LBB117_2:
	ldr	x0, [sp, #8]                    ; 8-byte Folded Reload
	bl	__ZNKSt3__16vectorIPN7sc_core18sc_signal_inout_ifIiEENS_9allocatorIS4_EEE8capacityB8ne200100Ev
	str	x0, [sp, #24]
	ldr	x8, [sp, #24]
	ldr	x9, [sp, #32]
	mov	x10, #2                         ; =0x2
	udiv	x9, x9, x10
	subs	x8, x8, x9
	b.lo	LBB117_4
	b	LBB117_3
LBB117_3:
	ldr	x8, [sp, #32]
	stur	x8, [x29, #-8]
	b	LBB117_5
LBB117_4:
	ldr	x9, [sp, #24]
	mov	x8, #2                          ; =0x2
	mul	x8, x8, x9
	add	x0, sp, #16
	str	x8, [sp, #16]
	sub	x1, x29, #24
	bl	__ZNSt3__13maxB8ne200100ImEERKT_S3_S3_
	ldr	x8, [x0]
	stur	x8, [x29, #-8]
	b	LBB117_5
LBB117_5:
	ldur	x0, [x29, #-8]
	ldp	x29, x30, [sp, #64]             ; 16-byte Folded Reload
	add	sp, sp, #80
	ret
	.cfi_endproc
                                        ; -- End function
	.private_extern	__ZNSt3__114__split_bufferIPN7sc_core18sc_signal_inout_ifIiEERNS_9allocatorIS4_EEEC1EmmS7_ ; -- Begin function _ZNSt3__114__split_bufferIPN7sc_core18sc_signal_inout_ifIiEERNS_9allocatorIS4_EEEC1EmmS7_
	.globl	__ZNSt3__114__split_bufferIPN7sc_core18sc_signal_inout_ifIiEERNS_9allocatorIS4_EEEC1EmmS7_
	.weak_def_can_be_hidden	__ZNSt3__114__split_bufferIPN7sc_core18sc_signal_inout_ifIiEERNS_9allocatorIS4_EEEC1EmmS7_
	.p2align	2
__ZNSt3__114__split_bufferIPN7sc_core18sc_signal_inout_ifIiEERNS_9allocatorIS4_EEEC1EmmS7_: ; @_ZNSt3__114__split_bufferIPN7sc_core18sc_signal_inout_ifIiEERNS_9allocatorIS4_EEEC1EmmS7_
	.cfi_startproc
; %bb.0:
	sub	sp, sp, #64
	stp	x29, x30, [sp, #48]             ; 16-byte Folded Spill
	add	x29, sp, #48
	.cfi_def_cfa w29, 16
	.cfi_offset w30, -8
	.cfi_offset w29, -16
	stur	x0, [x29, #-8]
	stur	x1, [x29, #-16]
	str	x2, [sp, #24]
	str	x3, [sp, #16]
	ldur	x0, [x29, #-8]
	str	x0, [sp, #8]                    ; 8-byte Folded Spill
	ldur	x1, [x29, #-16]
	ldr	x2, [sp, #24]
	ldr	x3, [sp, #16]
	bl	__ZNSt3__114__split_bufferIPN7sc_core18sc_signal_inout_ifIiEERNS_9allocatorIS4_EEEC2EmmS7_
	ldr	x0, [sp, #8]                    ; 8-byte Folded Reload
	ldp	x29, x30, [sp, #48]             ; 16-byte Folded Reload
	add	sp, sp, #64
	ret
	.cfi_endproc
                                        ; -- End function
	.private_extern	__ZNSt3__16vectorIPN7sc_core18sc_signal_inout_ifIiEENS_9allocatorIS4_EEE26__swap_out_circular_bufferERNS_14__split_bufferIS4_RS6_EE ; -- Begin function _ZNSt3__16vectorIPN7sc_core18sc_signal_inout_ifIiEENS_9allocatorIS4_EEE26__swap_out_circular_bufferERNS_14__split_bufferIS4_RS6_EE
	.globl	__ZNSt3__16vectorIPN7sc_core18sc_signal_inout_ifIiEENS_9allocatorIS4_EEE26__swap_out_circular_bufferERNS_14__split_bufferIS4_RS6_EE
	.weak_definition	__ZNSt3__16vectorIPN7sc_core18sc_signal_inout_ifIiEENS_9allocatorIS4_EEE26__swap_out_circular_bufferERNS_14__split_bufferIS4_RS6_EE
	.p2align	2
__ZNSt3__16vectorIPN7sc_core18sc_signal_inout_ifIiEENS_9allocatorIS4_EEE26__swap_out_circular_bufferERNS_14__split_bufferIS4_RS6_EE: ; @_ZNSt3__16vectorIPN7sc_core18sc_signal_inout_ifIiEENS_9allocatorIS4_EEE26__swap_out_circular_bufferERNS_14__split_bufferIS4_RS6_EE
	.cfi_startproc
; %bb.0:
	sub	sp, sp, #64
	stp	x29, x30, [sp, #48]             ; 16-byte Folded Spill
	add	x29, sp, #48
	.cfi_def_cfa w29, 16
	.cfi_offset w30, -8
	.cfi_offset w29, -16
	stur	x0, [x29, #-8]
	stur	x1, [x29, #-16]
	ldur	x0, [x29, #-8]
	str	x0, [sp, #16]                   ; 8-byte Folded Spill
	bl	__ZNKSt3__16vectorIPN7sc_core18sc_signal_inout_ifIiEENS_9allocatorIS4_EEE17__annotate_deleteB8ne200100Ev
	ldr	x8, [sp, #16]                   ; 8-byte Folded Reload
	ldur	x9, [x29, #-16]
	ldr	x9, [x9, #8]
	ldr	x10, [x8, #8]
	ldr	x11, [x8]
	subs	x10, x10, x11
	mov	x11, #8                         ; =0x8
	sdiv	x11, x10, x11
	mov	x10, #0                         ; =0x0
	subs	x10, x10, x11
	add	x9, x9, x10, lsl #3
	str	x9, [sp, #24]
	ldr	x0, [x8]
	bl	__ZNSt3__112__to_addressB8ne200100IPN7sc_core18sc_signal_inout_ifIiEEEEPT_S6_
	ldr	x8, [sp, #16]                   ; 8-byte Folded Reload
	str	x0, [sp]                        ; 8-byte Folded Spill
	ldr	x0, [x8, #8]
	bl	__ZNSt3__112__to_addressB8ne200100IPN7sc_core18sc_signal_inout_ifIiEEEEPT_S6_
	str	x0, [sp, #8]                    ; 8-byte Folded Spill
	ldr	x0, [sp, #24]
	bl	__ZNSt3__112__to_addressB8ne200100IPN7sc_core18sc_signal_inout_ifIiEEEEPT_S6_
	ldr	x1, [sp]                        ; 8-byte Folded Reload
	ldr	x2, [sp, #8]                    ; 8-byte Folded Reload
	mov	x3, x0
	ldr	x0, [sp, #16]                   ; 8-byte Folded Reload
	bl	__ZNSt3__134__uninitialized_allocator_relocateB8ne200100INS_9allocatorIPN7sc_core18sc_signal_inout_ifIiEEEEPS5_EEvRT_T0_SA_SA_
	ldr	x0, [sp, #16]                   ; 8-byte Folded Reload
	ldr	x8, [sp, #24]
	ldur	x9, [x29, #-16]
	str	x8, [x9, #8]
	ldr	x8, [x0]
	str	x8, [x0, #8]
	ldur	x8, [x29, #-16]
	add	x1, x8, #8
	bl	__ZNSt3__14swapB8ne200100IPPN7sc_core18sc_signal_inout_ifIiEEEENS_9enable_ifIXaasr21is_move_constructibleIT_EE5valuesr18is_move_assignableIS7_EE5valueEvE4typeERS7_SA_
	ldr	x9, [sp, #16]                   ; 8-byte Folded Reload
	ldur	x8, [x29, #-16]
	add	x0, x9, #8
	add	x1, x8, #16
	bl	__ZNSt3__14swapB8ne200100IPPN7sc_core18sc_signal_inout_ifIiEEEENS_9enable_ifIXaasr21is_move_constructibleIT_EE5valuesr18is_move_assignableIS7_EE5valueEvE4typeERS7_SA_
	ldr	x9, [sp, #16]                   ; 8-byte Folded Reload
	ldur	x8, [x29, #-16]
	add	x0, x9, #16
	add	x1, x8, #24
	bl	__ZNSt3__14swapB8ne200100IPPN7sc_core18sc_signal_inout_ifIiEEEENS_9enable_ifIXaasr21is_move_constructibleIT_EE5valuesr18is_move_assignableIS7_EE5valueEvE4typeERS7_SA_
	ldr	x0, [sp, #16]                   ; 8-byte Folded Reload
	ldur	x8, [x29, #-16]
	ldr	x8, [x8, #8]
	ldur	x9, [x29, #-16]
	str	x8, [x9]
	bl	__ZNKSt3__16vectorIPN7sc_core18sc_signal_inout_ifIiEENS_9allocatorIS4_EEE4sizeB8ne200100Ev
	mov	x1, x0
	ldr	x0, [sp, #16]                   ; 8-byte Folded Reload
	bl	__ZNKSt3__16vectorIPN7sc_core18sc_signal_inout_ifIiEENS_9allocatorIS4_EEE14__annotate_newB8ne200100Em
	ldp	x29, x30, [sp, #48]             ; 16-byte Folded Reload
	add	sp, sp, #64
	ret
	.cfi_endproc
                                        ; -- End function
	.private_extern	__ZNSt3__114__split_bufferIPN7sc_core18sc_signal_inout_ifIiEERNS_9allocatorIS4_EEED1Ev ; -- Begin function _ZNSt3__114__split_bufferIPN7sc_core18sc_signal_inout_ifIiEERNS_9allocatorIS4_EEED1Ev
	.globl	__ZNSt3__114__split_bufferIPN7sc_core18sc_signal_inout_ifIiEERNS_9allocatorIS4_EEED1Ev
	.weak_def_can_be_hidden	__ZNSt3__114__split_bufferIPN7sc_core18sc_signal_inout_ifIiEERNS_9allocatorIS4_EEED1Ev
	.p2align	2
__ZNSt3__114__split_bufferIPN7sc_core18sc_signal_inout_ifIiEERNS_9allocatorIS4_EEED1Ev: ; @_ZNSt3__114__split_bufferIPN7sc_core18sc_signal_inout_ifIiEERNS_9allocatorIS4_EEED1Ev
	.cfi_startproc
; %bb.0:
	sub	sp, sp, #32
	stp	x29, x30, [sp, #16]             ; 16-byte Folded Spill
	add	x29, sp, #16
	.cfi_def_cfa w29, 16
	.cfi_offset w30, -8
	.cfi_offset w29, -16
	str	x0, [sp, #8]
	ldr	x0, [sp, #8]
	str	x0, [sp]                        ; 8-byte Folded Spill
	bl	__ZNSt3__114__split_bufferIPN7sc_core18sc_signal_inout_ifIiEERNS_9allocatorIS4_EEED2Ev
	ldr	x0, [sp]                        ; 8-byte Folded Reload
	ldp	x29, x30, [sp, #16]             ; 16-byte Folded Reload
	add	sp, sp, #32
	ret
	.cfi_endproc
                                        ; -- End function
	.private_extern	__ZNKSt3__16vectorIPN7sc_core18sc_signal_inout_ifIiEENS_9allocatorIS4_EEE8max_sizeB8ne200100Ev ; -- Begin function _ZNKSt3__16vectorIPN7sc_core18sc_signal_inout_ifIiEENS_9allocatorIS4_EEE8max_sizeB8ne200100Ev
	.globl	__ZNKSt3__16vectorIPN7sc_core18sc_signal_inout_ifIiEENS_9allocatorIS4_EEE8max_sizeB8ne200100Ev
	.weak_definition	__ZNKSt3__16vectorIPN7sc_core18sc_signal_inout_ifIiEENS_9allocatorIS4_EEE8max_sizeB8ne200100Ev
	.p2align	2
__ZNKSt3__16vectorIPN7sc_core18sc_signal_inout_ifIiEENS_9allocatorIS4_EEE8max_sizeB8ne200100Ev: ; @_ZNKSt3__16vectorIPN7sc_core18sc_signal_inout_ifIiEENS_9allocatorIS4_EEE8max_sizeB8ne200100Ev
Lfunc_begin11:
	.cfi_startproc
	.cfi_personality 155, ___gxx_personality_v0
	.cfi_lsda 16, Lexception11
; %bb.0:
	sub	sp, sp, #64
	stp	x29, x30, [sp, #48]             ; 16-byte Folded Spill
	add	x29, sp, #48
	.cfi_def_cfa w29, 16
	.cfi_offset w30, -8
	.cfi_offset w29, -16
	stur	x0, [x29, #-8]
	ldur	x0, [x29, #-8]
	bl	__ZNSt3__116allocator_traitsINS_9allocatorIPN7sc_core18sc_signal_inout_ifIiEEEEE8max_sizeB8ne200100IS6_TnNS_9enable_ifIXsr14__has_max_sizeIKT_EE5valueEiE4typeELi0EEEmRKS6_
	sub	x8, x29, #16
	str	x8, [sp, #8]                    ; 8-byte Folded Spill
	stur	x0, [x29, #-16]
	bl	__ZNSt3__114numeric_limitsIlE3maxB8ne200100Ev
	mov	x8, x0
	ldr	x0, [sp, #8]                    ; 8-byte Folded Reload
	add	x1, sp, #24
	str	x8, [sp, #24]
Ltmp118:
	bl	__ZNSt3__13minB8ne200100ImEERKT_S3_S3_
	str	x0, [sp, #16]                   ; 8-byte Folded Spill
Ltmp119:
	b	LBB121_1
LBB121_1:
	ldr	x8, [sp, #16]                   ; 8-byte Folded Reload
	ldr	x0, [x8]
	ldp	x29, x30, [sp, #48]             ; 16-byte Folded Reload
	add	sp, sp, #64
	ret
LBB121_2:
Ltmp120:
	bl	___clang_call_terminate
Lfunc_end11:
	.cfi_endproc
	.section	__TEXT,__gcc_except_tab
	.p2align	2, 0x0
GCC_except_table121:
Lexception11:
	.byte	255                             ; @LPStart Encoding = omit
	.byte	155                             ; @TType Encoding = indirect pcrel sdata4
	.uleb128 Lttbase6-Lttbaseref6
Lttbaseref6:
	.byte	1                               ; Call site Encoding = uleb128
	.uleb128 Lcst_end11-Lcst_begin11
Lcst_begin11:
	.uleb128 Ltmp118-Lfunc_begin11          ; >> Call Site 1 <<
	.uleb128 Ltmp119-Ltmp118                ;   Call between Ltmp118 and Ltmp119
	.uleb128 Ltmp120-Lfunc_begin11          ;     jumps to Ltmp120
	.byte	1                               ;   On action: 1
Lcst_end11:
	.byte	1                               ; >> Action Record 1 <<
                                        ;   Catch TypeInfo 1
	.byte	0                               ;   No further actions
	.p2align	2, 0x0
                                        ; >> Catch TypeInfos <<
	.long	0                               ; TypeInfo 1
Lttbase6:
	.p2align	2, 0x0
                                        ; -- End function
	.section	__TEXT,__text,regular,pure_instructions
	.private_extern	__ZNSt3__16vectorIPN7sc_core18sc_signal_inout_ifIiEENS_9allocatorIS4_EEE20__throw_length_errorB8ne200100Ev ; -- Begin function _ZNSt3__16vectorIPN7sc_core18sc_signal_inout_ifIiEENS_9allocatorIS4_EEE20__throw_length_errorB8ne200100Ev
	.globl	__ZNSt3__16vectorIPN7sc_core18sc_signal_inout_ifIiEENS_9allocatorIS4_EEE20__throw_length_errorB8ne200100Ev
	.weak_definition	__ZNSt3__16vectorIPN7sc_core18sc_signal_inout_ifIiEENS_9allocatorIS4_EEE20__throw_length_errorB8ne200100Ev
	.p2align	2
__ZNSt3__16vectorIPN7sc_core18sc_signal_inout_ifIiEENS_9allocatorIS4_EEE20__throw_length_errorB8ne200100Ev: ; @_ZNSt3__16vectorIPN7sc_core18sc_signal_inout_ifIiEENS_9allocatorIS4_EEE20__throw_length_errorB8ne200100Ev
	.cfi_startproc
; %bb.0:
	stp	x29, x30, [sp, #-16]!           ; 16-byte Folded Spill
	mov	x29, sp
	.cfi_def_cfa w29, 16
	.cfi_offset w30, -8
	.cfi_offset w29, -16
	adrp	x0, l_.str.10@PAGE
	add	x0, x0, l_.str.10@PAGEOFF
	bl	__ZNSt3__120__throw_length_errorB8ne200100EPKc
	.cfi_endproc
                                        ; -- End function
	.private_extern	__ZNSt3__13maxB8ne200100ImEERKT_S3_S3_ ; -- Begin function _ZNSt3__13maxB8ne200100ImEERKT_S3_S3_
	.globl	__ZNSt3__13maxB8ne200100ImEERKT_S3_S3_
	.weak_definition	__ZNSt3__13maxB8ne200100ImEERKT_S3_S3_
	.p2align	2
__ZNSt3__13maxB8ne200100ImEERKT_S3_S3_: ; @_ZNSt3__13maxB8ne200100ImEERKT_S3_S3_
	.cfi_startproc
; %bb.0:
	sub	sp, sp, #48
	stp	x29, x30, [sp, #32]             ; 16-byte Folded Spill
	add	x29, sp, #32
	.cfi_def_cfa w29, 16
	.cfi_offset w30, -8
	.cfi_offset w29, -16
	stur	x0, [x29, #-8]
	str	x1, [sp, #16]
	ldur	x0, [x29, #-8]
	ldr	x1, [sp, #16]
	bl	__ZNSt3__13maxB8ne200100ImNS_6__lessIvvEEEERKT_S5_S5_T0_
	ldp	x29, x30, [sp, #32]             ; 16-byte Folded Reload
	add	sp, sp, #48
	ret
	.cfi_endproc
                                        ; -- End function
	.private_extern	__ZNSt3__13minB8ne200100ImEERKT_S3_S3_ ; -- Begin function _ZNSt3__13minB8ne200100ImEERKT_S3_S3_
	.globl	__ZNSt3__13minB8ne200100ImEERKT_S3_S3_
	.weak_definition	__ZNSt3__13minB8ne200100ImEERKT_S3_S3_
	.p2align	2
__ZNSt3__13minB8ne200100ImEERKT_S3_S3_: ; @_ZNSt3__13minB8ne200100ImEERKT_S3_S3_
	.cfi_startproc
; %bb.0:
	sub	sp, sp, #48
	stp	x29, x30, [sp, #32]             ; 16-byte Folded Spill
	add	x29, sp, #32
	.cfi_def_cfa w29, 16
	.cfi_offset w30, -8
	.cfi_offset w29, -16
	stur	x0, [x29, #-8]
	str	x1, [sp, #16]
	ldur	x0, [x29, #-8]
	ldr	x1, [sp, #16]
	bl	__ZNSt3__13minB8ne200100ImNS_6__lessIvvEEEERKT_S5_S5_T0_
	ldp	x29, x30, [sp, #32]             ; 16-byte Folded Reload
	add	sp, sp, #48
	ret
	.cfi_endproc
                                        ; -- End function
	.globl	__ZNSt3__116allocator_traitsINS_9allocatorIPN7sc_core18sc_signal_inout_ifIiEEEEE8max_sizeB8ne200100IS6_TnNS_9enable_ifIXsr14__has_max_sizeIKT_EE5valueEiE4typeELi0EEEmRKS6_ ; -- Begin function _ZNSt3__116allocator_traitsINS_9allocatorIPN7sc_core18sc_signal_inout_ifIiEEEEE8max_sizeB8ne200100IS6_TnNS_9enable_ifIXsr14__has_max_sizeIKT_EE5valueEiE4typeELi0EEEmRKS6_
	.weak_definition	__ZNSt3__116allocator_traitsINS_9allocatorIPN7sc_core18sc_signal_inout_ifIiEEEEE8max_sizeB8ne200100IS6_TnNS_9enable_ifIXsr14__has_max_sizeIKT_EE5valueEiE4typeELi0EEEmRKS6_
	.p2align	2
__ZNSt3__116allocator_traitsINS_9allocatorIPN7sc_core18sc_signal_inout_ifIiEEEEE8max_sizeB8ne200100IS6_TnNS_9enable_ifIXsr14__has_max_sizeIKT_EE5valueEiE4typeELi0EEEmRKS6_: ; @_ZNSt3__116allocator_traitsINS_9allocatorIPN7sc_core18sc_signal_inout_ifIiEEEEE8max_sizeB8ne200100IS6_TnNS_9enable_ifIXsr14__has_max_sizeIKT_EE5valueEiE4typeELi0EEEmRKS6_
	.cfi_startproc
; %bb.0:
	sub	sp, sp, #32
	stp	x29, x30, [sp, #16]             ; 16-byte Folded Spill
	add	x29, sp, #16
	.cfi_def_cfa w29, 16
	.cfi_offset w30, -8
	.cfi_offset w29, -16
	str	x0, [sp, #8]
	ldr	x0, [sp, #8]
	bl	__ZNKSt3__19allocatorIPN7sc_core18sc_signal_inout_ifIiEEE8max_sizeB8ne200100Ev
	ldp	x29, x30, [sp, #16]             ; 16-byte Folded Reload
	add	sp, sp, #32
	ret
	.cfi_endproc
                                        ; -- End function
	.private_extern	__ZNSt3__114numeric_limitsIlE3maxB8ne200100Ev ; -- Begin function _ZNSt3__114numeric_limitsIlE3maxB8ne200100Ev
	.globl	__ZNSt3__114numeric_limitsIlE3maxB8ne200100Ev
	.weak_definition	__ZNSt3__114numeric_limitsIlE3maxB8ne200100Ev
	.p2align	2
__ZNSt3__114numeric_limitsIlE3maxB8ne200100Ev: ; @_ZNSt3__114numeric_limitsIlE3maxB8ne200100Ev
	.cfi_startproc
; %bb.0:
	stp	x29, x30, [sp, #-16]!           ; 16-byte Folded Spill
	mov	x29, sp
	.cfi_def_cfa w29, 16
	.cfi_offset w30, -8
	.cfi_offset w29, -16
	bl	__ZNSt3__123__libcpp_numeric_limitsIlLb1EE3maxB8ne200100Ev
	ldp	x29, x30, [sp], #16             ; 16-byte Folded Reload
	ret
	.cfi_endproc
                                        ; -- End function
	.private_extern	__ZNSt3__13minB8ne200100ImNS_6__lessIvvEEEERKT_S5_S5_T0_ ; -- Begin function _ZNSt3__13minB8ne200100ImNS_6__lessIvvEEEERKT_S5_S5_T0_
	.globl	__ZNSt3__13minB8ne200100ImNS_6__lessIvvEEEERKT_S5_S5_T0_
	.weak_definition	__ZNSt3__13minB8ne200100ImNS_6__lessIvvEEEERKT_S5_S5_T0_
	.p2align	2
__ZNSt3__13minB8ne200100ImNS_6__lessIvvEEEERKT_S5_S5_T0_: ; @_ZNSt3__13minB8ne200100ImNS_6__lessIvvEEEERKT_S5_S5_T0_
	.cfi_startproc
; %bb.0:
	sub	sp, sp, #48
	stp	x29, x30, [sp, #32]             ; 16-byte Folded Spill
	add	x29, sp, #32
	.cfi_def_cfa w29, 16
	.cfi_offset w30, -8
	.cfi_offset w29, -16
	str	x0, [sp, #16]
	str	x1, [sp, #8]
	ldr	x1, [sp, #8]
	ldr	x2, [sp, #16]
	sub	x0, x29, #1
	bl	__ZNKSt3__16__lessIvvEclB8ne200100ImmEEbRKT_RKT0_
	tbz	w0, #0, LBB127_2
	b	LBB127_1
LBB127_1:
	ldr	x8, [sp, #8]
	str	x8, [sp]                        ; 8-byte Folded Spill
	b	LBB127_3
LBB127_2:
	ldr	x8, [sp, #16]
	str	x8, [sp]                        ; 8-byte Folded Spill
	b	LBB127_3
LBB127_3:
	ldr	x0, [sp]                        ; 8-byte Folded Reload
	ldp	x29, x30, [sp, #32]             ; 16-byte Folded Reload
	add	sp, sp, #48
	ret
	.cfi_endproc
                                        ; -- End function
	.private_extern	__ZNKSt3__16__lessIvvEclB8ne200100ImmEEbRKT_RKT0_ ; -- Begin function _ZNKSt3__16__lessIvvEclB8ne200100ImmEEbRKT_RKT0_
	.globl	__ZNKSt3__16__lessIvvEclB8ne200100ImmEEbRKT_RKT0_
	.weak_definition	__ZNKSt3__16__lessIvvEclB8ne200100ImmEEbRKT_RKT0_
	.p2align	2
__ZNKSt3__16__lessIvvEclB8ne200100ImmEEbRKT_RKT0_: ; @_ZNKSt3__16__lessIvvEclB8ne200100ImmEEbRKT_RKT0_
	.cfi_startproc
; %bb.0:
	sub	sp, sp, #32
	.cfi_def_cfa_offset 32
	str	x0, [sp, #24]
	str	x1, [sp, #16]
	str	x2, [sp, #8]
	ldr	x8, [sp, #16]
	ldr	x8, [x8]
	ldr	x9, [sp, #8]
	ldr	x9, [x9]
	subs	x8, x8, x9
	cset	w0, lo
	add	sp, sp, #32
	ret
	.cfi_endproc
                                        ; -- End function
	.private_extern	__ZNKSt3__19allocatorIPN7sc_core18sc_signal_inout_ifIiEEE8max_sizeB8ne200100Ev ; -- Begin function _ZNKSt3__19allocatorIPN7sc_core18sc_signal_inout_ifIiEEE8max_sizeB8ne200100Ev
	.globl	__ZNKSt3__19allocatorIPN7sc_core18sc_signal_inout_ifIiEEE8max_sizeB8ne200100Ev
	.weak_definition	__ZNKSt3__19allocatorIPN7sc_core18sc_signal_inout_ifIiEEE8max_sizeB8ne200100Ev
	.p2align	2
__ZNKSt3__19allocatorIPN7sc_core18sc_signal_inout_ifIiEEE8max_sizeB8ne200100Ev: ; @_ZNKSt3__19allocatorIPN7sc_core18sc_signal_inout_ifIiEEE8max_sizeB8ne200100Ev
	.cfi_startproc
; %bb.0:
	sub	sp, sp, #16
	.cfi_def_cfa_offset 16
	str	x0, [sp, #8]
	mov	x0, #2305843009213693951        ; =0x1fffffffffffffff
	add	sp, sp, #16
	ret
	.cfi_endproc
                                        ; -- End function
	.private_extern	__ZNSt3__123__libcpp_numeric_limitsIlLb1EE3maxB8ne200100Ev ; -- Begin function _ZNSt3__123__libcpp_numeric_limitsIlLb1EE3maxB8ne200100Ev
	.globl	__ZNSt3__123__libcpp_numeric_limitsIlLb1EE3maxB8ne200100Ev
	.weak_definition	__ZNSt3__123__libcpp_numeric_limitsIlLb1EE3maxB8ne200100Ev
	.p2align	2
__ZNSt3__123__libcpp_numeric_limitsIlLb1EE3maxB8ne200100Ev: ; @_ZNSt3__123__libcpp_numeric_limitsIlLb1EE3maxB8ne200100Ev
	.cfi_startproc
; %bb.0:
	mov	x0, #9223372036854775807        ; =0x7fffffffffffffff
	ret
	.cfi_endproc
                                        ; -- End function
	.private_extern	__ZNSt3__120__throw_length_errorB8ne200100EPKc ; -- Begin function _ZNSt3__120__throw_length_errorB8ne200100EPKc
	.globl	__ZNSt3__120__throw_length_errorB8ne200100EPKc
	.weak_definition	__ZNSt3__120__throw_length_errorB8ne200100EPKc
	.p2align	2
__ZNSt3__120__throw_length_errorB8ne200100EPKc: ; @_ZNSt3__120__throw_length_errorB8ne200100EPKc
Lfunc_begin12:
	.cfi_startproc
	.cfi_personality 155, ___gxx_personality_v0
	.cfi_lsda 16, Lexception12
; %bb.0:
	sub	sp, sp, #48
	stp	x29, x30, [sp, #32]             ; 16-byte Folded Spill
	add	x29, sp, #32
	.cfi_def_cfa w29, 16
	.cfi_offset w30, -8
	.cfi_offset w29, -16
	stur	x0, [x29, #-8]
	mov	x0, #16                         ; =0x10
	bl	___cxa_allocate_exception
	str	x0, [sp]                        ; 8-byte Folded Spill
	ldur	x1, [x29, #-8]
Ltmp123:
	bl	__ZNSt12length_errorC1B8ne200100EPKc
Ltmp124:
	b	LBB131_1
LBB131_1:
	ldr	x0, [sp]                        ; 8-byte Folded Reload
	adrp	x1, __ZTISt12length_error@GOTPAGE
	ldr	x1, [x1, __ZTISt12length_error@GOTPAGEOFF]
	adrp	x2, __ZNSt12length_errorD1Ev@GOTPAGE
	ldr	x2, [x2, __ZNSt12length_errorD1Ev@GOTPAGEOFF]
	bl	___cxa_throw
LBB131_2:
Ltmp125:
	mov	x8, x0
	ldr	x0, [sp]                        ; 8-byte Folded Reload
	str	x8, [sp, #16]
	mov	x8, x1
	str	w8, [sp, #12]
	bl	___cxa_free_exception
	b	LBB131_3
LBB131_3:
	ldr	x0, [sp, #16]
	bl	__Unwind_Resume
Lfunc_end12:
	.cfi_endproc
	.section	__TEXT,__gcc_except_tab
	.p2align	2, 0x0
GCC_except_table131:
Lexception12:
	.byte	255                             ; @LPStart Encoding = omit
	.byte	255                             ; @TType Encoding = omit
	.byte	1                               ; Call site Encoding = uleb128
	.uleb128 Lcst_end12-Lcst_begin12
Lcst_begin12:
	.uleb128 Lfunc_begin12-Lfunc_begin12    ; >> Call Site 1 <<
	.uleb128 Ltmp123-Lfunc_begin12          ;   Call between Lfunc_begin12 and Ltmp123
	.byte	0                               ;     has no landing pad
	.byte	0                               ;   On action: cleanup
	.uleb128 Ltmp123-Lfunc_begin12          ; >> Call Site 2 <<
	.uleb128 Ltmp124-Ltmp123                ;   Call between Ltmp123 and Ltmp124
	.uleb128 Ltmp125-Lfunc_begin12          ;     jumps to Ltmp125
	.byte	0                               ;   On action: cleanup
	.uleb128 Ltmp124-Lfunc_begin12          ; >> Call Site 3 <<
	.uleb128 Lfunc_end12-Ltmp124            ;   Call between Ltmp124 and Lfunc_end12
	.byte	0                               ;     has no landing pad
	.byte	0                               ;   On action: cleanup
Lcst_end12:
	.p2align	2, 0x0
                                        ; -- End function
	.section	__TEXT,__text,regular,pure_instructions
	.private_extern	__ZNSt12length_errorC1B8ne200100EPKc ; -- Begin function _ZNSt12length_errorC1B8ne200100EPKc
	.globl	__ZNSt12length_errorC1B8ne200100EPKc
	.weak_def_can_be_hidden	__ZNSt12length_errorC1B8ne200100EPKc
	.p2align	2
__ZNSt12length_errorC1B8ne200100EPKc:   ; @_ZNSt12length_errorC1B8ne200100EPKc
	.cfi_startproc
; %bb.0:
	sub	sp, sp, #48
	stp	x29, x30, [sp, #32]             ; 16-byte Folded Spill
	add	x29, sp, #32
	.cfi_def_cfa w29, 16
	.cfi_offset w30, -8
	.cfi_offset w29, -16
	stur	x0, [x29, #-8]
	str	x1, [sp, #16]
	ldur	x0, [x29, #-8]
	str	x0, [sp, #8]                    ; 8-byte Folded Spill
	ldr	x1, [sp, #16]
	bl	__ZNSt12length_errorC2B8ne200100EPKc
	ldr	x0, [sp, #8]                    ; 8-byte Folded Reload
	ldp	x29, x30, [sp, #32]             ; 16-byte Folded Reload
	add	sp, sp, #48
	ret
	.cfi_endproc
                                        ; -- End function
	.private_extern	__ZNSt12length_errorC2B8ne200100EPKc ; -- Begin function _ZNSt12length_errorC2B8ne200100EPKc
	.globl	__ZNSt12length_errorC2B8ne200100EPKc
	.weak_def_can_be_hidden	__ZNSt12length_errorC2B8ne200100EPKc
	.p2align	2
__ZNSt12length_errorC2B8ne200100EPKc:   ; @_ZNSt12length_errorC2B8ne200100EPKc
	.cfi_startproc
; %bb.0:
	sub	sp, sp, #48
	stp	x29, x30, [sp, #32]             ; 16-byte Folded Spill
	add	x29, sp, #32
	.cfi_def_cfa w29, 16
	.cfi_offset w30, -8
	.cfi_offset w29, -16
	stur	x0, [x29, #-8]
	str	x1, [sp, #16]
	ldur	x0, [x29, #-8]
	str	x0, [sp, #8]                    ; 8-byte Folded Spill
	ldr	x1, [sp, #16]
	bl	__ZNSt11logic_errorC2EPKc
	ldr	x0, [sp, #8]                    ; 8-byte Folded Reload
	adrp	x8, __ZTVSt12length_error@GOTPAGE
	ldr	x8, [x8, __ZTVSt12length_error@GOTPAGEOFF]
	add	x8, x8, #16
	str	x8, [x0]
	ldp	x29, x30, [sp, #32]             ; 16-byte Folded Reload
	add	sp, sp, #48
	ret
	.cfi_endproc
                                        ; -- End function
	.private_extern	__ZNSt3__13maxB8ne200100ImNS_6__lessIvvEEEERKT_S5_S5_T0_ ; -- Begin function _ZNSt3__13maxB8ne200100ImNS_6__lessIvvEEEERKT_S5_S5_T0_
	.globl	__ZNSt3__13maxB8ne200100ImNS_6__lessIvvEEEERKT_S5_S5_T0_
	.weak_definition	__ZNSt3__13maxB8ne200100ImNS_6__lessIvvEEEERKT_S5_S5_T0_
	.p2align	2
__ZNSt3__13maxB8ne200100ImNS_6__lessIvvEEEERKT_S5_S5_T0_: ; @_ZNSt3__13maxB8ne200100ImNS_6__lessIvvEEEERKT_S5_S5_T0_
	.cfi_startproc
; %bb.0:
	sub	sp, sp, #48
	stp	x29, x30, [sp, #32]             ; 16-byte Folded Spill
	add	x29, sp, #32
	.cfi_def_cfa w29, 16
	.cfi_offset w30, -8
	.cfi_offset w29, -16
	str	x0, [sp, #16]
	str	x1, [sp, #8]
	ldr	x1, [sp, #16]
	ldr	x2, [sp, #8]
	sub	x0, x29, #1
	bl	__ZNKSt3__16__lessIvvEclB8ne200100ImmEEbRKT_RKT0_
	tbz	w0, #0, LBB134_2
	b	LBB134_1
LBB134_1:
	ldr	x8, [sp, #8]
	str	x8, [sp]                        ; 8-byte Folded Spill
	b	LBB134_3
LBB134_2:
	ldr	x8, [sp, #16]
	str	x8, [sp]                        ; 8-byte Folded Spill
	b	LBB134_3
LBB134_3:
	ldr	x0, [sp]                        ; 8-byte Folded Reload
	ldp	x29, x30, [sp, #32]             ; 16-byte Folded Reload
	add	sp, sp, #48
	ret
	.cfi_endproc
                                        ; -- End function
	.private_extern	__ZNSt3__114__split_bufferIPN7sc_core18sc_signal_inout_ifIiEERNS_9allocatorIS4_EEEC2EmmS7_ ; -- Begin function _ZNSt3__114__split_bufferIPN7sc_core18sc_signal_inout_ifIiEERNS_9allocatorIS4_EEEC2EmmS7_
	.globl	__ZNSt3__114__split_bufferIPN7sc_core18sc_signal_inout_ifIiEERNS_9allocatorIS4_EEEC2EmmS7_
	.weak_def_can_be_hidden	__ZNSt3__114__split_bufferIPN7sc_core18sc_signal_inout_ifIiEERNS_9allocatorIS4_EEEC2EmmS7_
	.p2align	2
__ZNSt3__114__split_bufferIPN7sc_core18sc_signal_inout_ifIiEERNS_9allocatorIS4_EEEC2EmmS7_: ; @_ZNSt3__114__split_bufferIPN7sc_core18sc_signal_inout_ifIiEERNS_9allocatorIS4_EEEC2EmmS7_
	.cfi_startproc
; %bb.0:
	sub	sp, sp, #80
	stp	x29, x30, [sp, #64]             ; 16-byte Folded Spill
	add	x29, sp, #64
	.cfi_def_cfa w29, 16
	.cfi_offset w30, -8
	.cfi_offset w29, -16
	stur	x0, [x29, #-16]
	stur	x1, [x29, #-24]
	str	x2, [sp, #32]
	str	x3, [sp, #24]
	ldur	x9, [x29, #-16]
	str	x9, [sp]                        ; 8-byte Folded Spill
	mov	x8, x9
	stur	x8, [x29, #-8]
                                        ; kill: def $x8 killed $xzr
	str	xzr, [x9, #24]
	ldr	x8, [sp, #24]
	str	x8, [x9, #32]
	ldur	x8, [x29, #-24]
	cbnz	x8, LBB135_2
	b	LBB135_1
LBB135_1:
	ldr	x8, [sp]                        ; 8-byte Folded Reload
                                        ; kill: def $x9 killed $xzr
	str	xzr, [x8]
	b	LBB135_3
LBB135_2:
	ldr	x8, [sp]                        ; 8-byte Folded Reload
	ldr	x0, [x8, #32]
	ldur	x1, [x29, #-24]
	bl	__ZNSt3__119__allocate_at_leastB8ne200100INS_9allocatorIPN7sc_core18sc_signal_inout_ifIiEEEEEENS_19__allocation_resultINS_16allocator_traitsIT_E7pointerEEERS9_m
	ldr	x9, [sp]                        ; 8-byte Folded Reload
	str	x0, [sp, #8]
	str	x1, [sp, #16]
	ldr	x8, [sp, #8]
	str	x8, [x9]
	ldr	x8, [sp, #16]
	stur	x8, [x29, #-24]
	b	LBB135_3
LBB135_3:
	ldr	x9, [sp]                        ; 8-byte Folded Reload
	ldr	x8, [x9]
	ldr	x10, [sp, #32]
	add	x8, x8, x10, lsl #3
	str	x8, [x9, #16]
	str	x8, [x9, #8]
	ldr	x8, [x9]
	ldur	x10, [x29, #-24]
	add	x8, x8, x10, lsl #3
	str	x8, [x9, #24]
	ldur	x0, [x29, #-8]
	ldp	x29, x30, [sp, #64]             ; 16-byte Folded Reload
	add	sp, sp, #80
	ret
	.cfi_endproc
                                        ; -- End function
	.private_extern	__ZNSt3__119__allocate_at_leastB8ne200100INS_9allocatorIPN7sc_core18sc_signal_inout_ifIiEEEEEENS_19__allocation_resultINS_16allocator_traitsIT_E7pointerEEERS9_m ; -- Begin function _ZNSt3__119__allocate_at_leastB8ne200100INS_9allocatorIPN7sc_core18sc_signal_inout_ifIiEEEEEENS_19__allocation_resultINS_16allocator_traitsIT_E7pointerEEERS9_m
	.globl	__ZNSt3__119__allocate_at_leastB8ne200100INS_9allocatorIPN7sc_core18sc_signal_inout_ifIiEEEEEENS_19__allocation_resultINS_16allocator_traitsIT_E7pointerEEERS9_m
	.weak_definition	__ZNSt3__119__allocate_at_leastB8ne200100INS_9allocatorIPN7sc_core18sc_signal_inout_ifIiEEEEEENS_19__allocation_resultINS_16allocator_traitsIT_E7pointerEEERS9_m
	.p2align	2
__ZNSt3__119__allocate_at_leastB8ne200100INS_9allocatorIPN7sc_core18sc_signal_inout_ifIiEEEEEENS_19__allocation_resultINS_16allocator_traitsIT_E7pointerEEERS9_m: ; @_ZNSt3__119__allocate_at_leastB8ne200100INS_9allocatorIPN7sc_core18sc_signal_inout_ifIiEEEEEENS_19__allocation_resultINS_16allocator_traitsIT_E7pointerEEERS9_m
	.cfi_startproc
; %bb.0:
	sub	sp, sp, #48
	stp	x29, x30, [sp, #32]             ; 16-byte Folded Spill
	add	x29, sp, #32
	.cfi_def_cfa w29, 16
	.cfi_offset w30, -8
	.cfi_offset w29, -16
	str	x0, [sp, #8]
	str	x1, [sp]
	ldr	x0, [sp, #8]
	ldr	x1, [sp]
	bl	__ZNSt3__19allocatorIPN7sc_core18sc_signal_inout_ifIiEEE8allocateB8ne200100Em
	str	x0, [sp, #16]
	ldr	x8, [sp]
	str	x8, [sp, #24]
	ldr	x0, [sp, #16]
	ldr	x1, [sp, #24]
	ldp	x29, x30, [sp, #32]             ; 16-byte Folded Reload
	add	sp, sp, #48
	ret
	.cfi_endproc
                                        ; -- End function
	.private_extern	__ZNSt3__19allocatorIPN7sc_core18sc_signal_inout_ifIiEEE8allocateB8ne200100Em ; -- Begin function _ZNSt3__19allocatorIPN7sc_core18sc_signal_inout_ifIiEEE8allocateB8ne200100Em
	.globl	__ZNSt3__19allocatorIPN7sc_core18sc_signal_inout_ifIiEEE8allocateB8ne200100Em
	.weak_definition	__ZNSt3__19allocatorIPN7sc_core18sc_signal_inout_ifIiEEE8allocateB8ne200100Em
	.p2align	2
__ZNSt3__19allocatorIPN7sc_core18sc_signal_inout_ifIiEEE8allocateB8ne200100Em: ; @_ZNSt3__19allocatorIPN7sc_core18sc_signal_inout_ifIiEEE8allocateB8ne200100Em
	.cfi_startproc
; %bb.0:
	sub	sp, sp, #48
	stp	x29, x30, [sp, #32]             ; 16-byte Folded Spill
	add	x29, sp, #32
	.cfi_def_cfa w29, 16
	.cfi_offset w30, -8
	.cfi_offset w29, -16
	stur	x0, [x29, #-8]
	str	x1, [sp, #16]
	ldur	x0, [x29, #-8]
	ldr	x8, [sp, #16]
	str	x8, [sp, #8]                    ; 8-byte Folded Spill
	bl	__ZNSt3__116allocator_traitsINS_9allocatorIPN7sc_core18sc_signal_inout_ifIiEEEEE8max_sizeB8ne200100IS6_TnNS_9enable_ifIXsr14__has_max_sizeIKT_EE5valueEiE4typeELi0EEEmRKS6_
	ldr	x8, [sp, #8]                    ; 8-byte Folded Reload
	subs	x8, x8, x0
	b.ls	LBB137_2
	b	LBB137_1
LBB137_1:
	bl	__ZSt28__throw_bad_array_new_lengthB8ne200100v
LBB137_2:
	ldr	x0, [sp, #16]
	mov	x1, #8                          ; =0x8
	bl	__ZNSt3__117__libcpp_allocateB8ne200100IPN7sc_core18sc_signal_inout_ifIiEEEEPT_NS_15__element_countEm
	ldp	x29, x30, [sp, #32]             ; 16-byte Folded Reload
	add	sp, sp, #48
	ret
	.cfi_endproc
                                        ; -- End function
	.private_extern	__ZSt28__throw_bad_array_new_lengthB8ne200100v ; -- Begin function _ZSt28__throw_bad_array_new_lengthB8ne200100v
	.globl	__ZSt28__throw_bad_array_new_lengthB8ne200100v
	.weak_definition	__ZSt28__throw_bad_array_new_lengthB8ne200100v
	.p2align	2
__ZSt28__throw_bad_array_new_lengthB8ne200100v: ; @_ZSt28__throw_bad_array_new_lengthB8ne200100v
	.cfi_startproc
; %bb.0:
	sub	sp, sp, #32
	stp	x29, x30, [sp, #16]             ; 16-byte Folded Spill
	add	x29, sp, #16
	.cfi_def_cfa w29, 16
	.cfi_offset w30, -8
	.cfi_offset w29, -16
	mov	x0, #8                          ; =0x8
	bl	___cxa_allocate_exception
	str	x0, [sp, #8]                    ; 8-byte Folded Spill
	bl	__ZNSt20bad_array_new_lengthC1Ev
	ldr	x0, [sp, #8]                    ; 8-byte Folded Reload
	adrp	x1, __ZTISt20bad_array_new_length@GOTPAGE
	ldr	x1, [x1, __ZTISt20bad_array_new_length@GOTPAGEOFF]
	adrp	x2, __ZNSt20bad_array_new_lengthD1Ev@GOTPAGE
	ldr	x2, [x2, __ZNSt20bad_array_new_lengthD1Ev@GOTPAGEOFF]
	bl	___cxa_throw
	.cfi_endproc
                                        ; -- End function
	.private_extern	__ZNSt3__117__libcpp_allocateB8ne200100IPN7sc_core18sc_signal_inout_ifIiEEEEPT_NS_15__element_countEm ; -- Begin function _ZNSt3__117__libcpp_allocateB8ne200100IPN7sc_core18sc_signal_inout_ifIiEEEEPT_NS_15__element_countEm
	.globl	__ZNSt3__117__libcpp_allocateB8ne200100IPN7sc_core18sc_signal_inout_ifIiEEEEPT_NS_15__element_countEm
	.weak_definition	__ZNSt3__117__libcpp_allocateB8ne200100IPN7sc_core18sc_signal_inout_ifIiEEEEPT_NS_15__element_countEm
	.p2align	2
__ZNSt3__117__libcpp_allocateB8ne200100IPN7sc_core18sc_signal_inout_ifIiEEEEPT_NS_15__element_countEm: ; @_ZNSt3__117__libcpp_allocateB8ne200100IPN7sc_core18sc_signal_inout_ifIiEEEEPT_NS_15__element_countEm
	.cfi_startproc
; %bb.0:
	sub	sp, sp, #64
	stp	x29, x30, [sp, #48]             ; 16-byte Folded Spill
	add	x29, sp, #48
	.cfi_def_cfa w29, 16
	.cfi_offset w30, -8
	.cfi_offset w29, -16
	stur	x0, [x29, #-16]
	str	x1, [sp, #24]
	ldur	x8, [x29, #-16]
	lsl	x8, x8, #3
	str	x8, [sp, #16]
	ldr	x0, [sp, #24]
	bl	__ZNSt3__124__is_overaligned_for_newB8ne200100Em
	tbz	w0, #0, LBB139_2
	b	LBB139_1
LBB139_1:
	ldr	x8, [sp, #24]
	str	x8, [sp, #8]
	ldr	x0, [sp, #16]
	ldr	x1, [sp, #8]
	bl	__ZNSt3__121__libcpp_operator_newB8ne200100IJmSt11align_val_tEEEPvDpT_
	stur	x0, [x29, #-8]
	b	LBB139_3
LBB139_2:
	ldr	x0, [sp, #16]
	bl	__ZNSt3__121__libcpp_operator_newB8ne200100IJmEEEPvDpT_
	stur	x0, [x29, #-8]
	b	LBB139_3
LBB139_3:
	ldur	x0, [x29, #-8]
	ldp	x29, x30, [sp, #48]             ; 16-byte Folded Reload
	add	sp, sp, #64
	ret
	.cfi_endproc
                                        ; -- End function
	.private_extern	__ZNSt3__121__libcpp_operator_newB8ne200100IJmSt11align_val_tEEEPvDpT_ ; -- Begin function _ZNSt3__121__libcpp_operator_newB8ne200100IJmSt11align_val_tEEEPvDpT_
	.globl	__ZNSt3__121__libcpp_operator_newB8ne200100IJmSt11align_val_tEEEPvDpT_
	.weak_definition	__ZNSt3__121__libcpp_operator_newB8ne200100IJmSt11align_val_tEEEPvDpT_
	.p2align	2
__ZNSt3__121__libcpp_operator_newB8ne200100IJmSt11align_val_tEEEPvDpT_: ; @_ZNSt3__121__libcpp_operator_newB8ne200100IJmSt11align_val_tEEEPvDpT_
	.cfi_startproc
; %bb.0:
	sub	sp, sp, #32
	stp	x29, x30, [sp, #16]             ; 16-byte Folded Spill
	add	x29, sp, #16
	.cfi_def_cfa w29, 16
	.cfi_offset w30, -8
	.cfi_offset w29, -16
	str	x0, [sp, #8]
	str	x1, [sp]
	ldr	x0, [sp, #8]
	ldr	x1, [sp]
	bl	__ZnwmSt11align_val_t
	ldp	x29, x30, [sp, #16]             ; 16-byte Folded Reload
	add	sp, sp, #32
	ret
	.cfi_endproc
                                        ; -- End function
	.private_extern	__ZNSt3__121__libcpp_operator_newB8ne200100IJmEEEPvDpT_ ; -- Begin function _ZNSt3__121__libcpp_operator_newB8ne200100IJmEEEPvDpT_
	.globl	__ZNSt3__121__libcpp_operator_newB8ne200100IJmEEEPvDpT_
	.weak_definition	__ZNSt3__121__libcpp_operator_newB8ne200100IJmEEEPvDpT_
	.p2align	2
__ZNSt3__121__libcpp_operator_newB8ne200100IJmEEEPvDpT_: ; @_ZNSt3__121__libcpp_operator_newB8ne200100IJmEEEPvDpT_
	.cfi_startproc
; %bb.0:
	sub	sp, sp, #32
	stp	x29, x30, [sp, #16]             ; 16-byte Folded Spill
	add	x29, sp, #16
	.cfi_def_cfa w29, 16
	.cfi_offset w30, -8
	.cfi_offset w29, -16
	str	x0, [sp, #8]
	ldr	x0, [sp, #8]
	bl	__Znwm
	ldp	x29, x30, [sp, #16]             ; 16-byte Folded Reload
	add	sp, sp, #32
	ret
	.cfi_endproc
                                        ; -- End function
	.private_extern	__ZNSt3__134__uninitialized_allocator_relocateB8ne200100INS_9allocatorIPN7sc_core18sc_signal_inout_ifIiEEEEPS5_EEvRT_T0_SA_SA_ ; -- Begin function _ZNSt3__134__uninitialized_allocator_relocateB8ne200100INS_9allocatorIPN7sc_core18sc_signal_inout_ifIiEEEEPS5_EEvRT_T0_SA_SA_
	.globl	__ZNSt3__134__uninitialized_allocator_relocateB8ne200100INS_9allocatorIPN7sc_core18sc_signal_inout_ifIiEEEEPS5_EEvRT_T0_SA_SA_
	.weak_definition	__ZNSt3__134__uninitialized_allocator_relocateB8ne200100INS_9allocatorIPN7sc_core18sc_signal_inout_ifIiEEEEPS5_EEvRT_T0_SA_SA_
	.p2align	2
__ZNSt3__134__uninitialized_allocator_relocateB8ne200100INS_9allocatorIPN7sc_core18sc_signal_inout_ifIiEEEEPS5_EEvRT_T0_SA_SA_: ; @_ZNSt3__134__uninitialized_allocator_relocateB8ne200100INS_9allocatorIPN7sc_core18sc_signal_inout_ifIiEEEEPS5_EEvRT_T0_SA_SA_
	.cfi_startproc
; %bb.0:
	sub	sp, sp, #64
	stp	x29, x30, [sp, #48]             ; 16-byte Folded Spill
	add	x29, sp, #48
	.cfi_def_cfa w29, 16
	.cfi_offset w30, -8
	.cfi_offset w29, -16
	stur	x0, [x29, #-8]
	stur	x1, [x29, #-16]
	str	x2, [sp, #24]
	str	x3, [sp, #16]
	ldr	x0, [sp, #16]
	bl	__ZNSt3__112__to_addressB8ne200100IPN7sc_core18sc_signal_inout_ifIiEEEEPT_S6_
	str	x0, [sp, #8]                    ; 8-byte Folded Spill
	ldur	x0, [x29, #-16]
	bl	__ZNSt3__112__to_addressB8ne200100IPN7sc_core18sc_signal_inout_ifIiEEEEPT_S6_
	mov	x1, x0
	ldr	x0, [sp, #8]                    ; 8-byte Folded Reload
	ldr	x8, [sp, #24]
	ldur	x9, [x29, #-16]
	subs	x9, x8, x9
	mov	x8, #8                          ; =0x8
	sdiv	x9, x9, x8
	mul	x2, x8, x9
	bl	_memcpy
	ldp	x29, x30, [sp, #48]             ; 16-byte Folded Reload
	add	sp, sp, #64
	ret
	.cfi_endproc
                                        ; -- End function
	.private_extern	__ZNSt3__14swapB8ne200100IPPN7sc_core18sc_signal_inout_ifIiEEEENS_9enable_ifIXaasr21is_move_constructibleIT_EE5valuesr18is_move_assignableIS7_EE5valueEvE4typeERS7_SA_ ; -- Begin function _ZNSt3__14swapB8ne200100IPPN7sc_core18sc_signal_inout_ifIiEEEENS_9enable_ifIXaasr21is_move_constructibleIT_EE5valuesr18is_move_assignableIS7_EE5valueEvE4typeERS7_SA_
	.globl	__ZNSt3__14swapB8ne200100IPPN7sc_core18sc_signal_inout_ifIiEEEENS_9enable_ifIXaasr21is_move_constructibleIT_EE5valuesr18is_move_assignableIS7_EE5valueEvE4typeERS7_SA_
	.weak_definition	__ZNSt3__14swapB8ne200100IPPN7sc_core18sc_signal_inout_ifIiEEEENS_9enable_ifIXaasr21is_move_constructibleIT_EE5valuesr18is_move_assignableIS7_EE5valueEvE4typeERS7_SA_
	.p2align	2
__ZNSt3__14swapB8ne200100IPPN7sc_core18sc_signal_inout_ifIiEEEENS_9enable_ifIXaasr21is_move_constructibleIT_EE5valuesr18is_move_assignableIS7_EE5valueEvE4typeERS7_SA_: ; @_ZNSt3__14swapB8ne200100IPPN7sc_core18sc_signal_inout_ifIiEEEENS_9enable_ifIXaasr21is_move_constructibleIT_EE5valuesr18is_move_assignableIS7_EE5valueEvE4typeERS7_SA_
	.cfi_startproc
; %bb.0:
	sub	sp, sp, #32
	.cfi_def_cfa_offset 32
	str	x0, [sp, #24]
	str	x1, [sp, #16]
	ldr	x8, [sp, #24]
	ldr	x8, [x8]
	str	x8, [sp, #8]
	ldr	x8, [sp, #16]
	ldr	x8, [x8]
	ldr	x9, [sp, #24]
	str	x8, [x9]
	ldr	x8, [sp, #8]
	ldr	x9, [sp, #16]
	str	x8, [x9]
	add	sp, sp, #32
	ret
	.cfi_endproc
                                        ; -- End function
	.private_extern	__ZNKSt3__16vectorIPN7sc_core18sc_signal_inout_ifIiEENS_9allocatorIS4_EEE14__annotate_newB8ne200100Em ; -- Begin function _ZNKSt3__16vectorIPN7sc_core18sc_signal_inout_ifIiEENS_9allocatorIS4_EEE14__annotate_newB8ne200100Em
	.globl	__ZNKSt3__16vectorIPN7sc_core18sc_signal_inout_ifIiEENS_9allocatorIS4_EEE14__annotate_newB8ne200100Em
	.weak_definition	__ZNKSt3__16vectorIPN7sc_core18sc_signal_inout_ifIiEENS_9allocatorIS4_EEE14__annotate_newB8ne200100Em
	.p2align	2
__ZNKSt3__16vectorIPN7sc_core18sc_signal_inout_ifIiEENS_9allocatorIS4_EEE14__annotate_newB8ne200100Em: ; @_ZNKSt3__16vectorIPN7sc_core18sc_signal_inout_ifIiEENS_9allocatorIS4_EEE14__annotate_newB8ne200100Em
	.cfi_startproc
; %bb.0:
	sub	sp, sp, #16
	.cfi_def_cfa_offset 16
	str	x0, [sp, #8]
	str	x1, [sp]
	add	sp, sp, #16
	ret
	.cfi_endproc
                                        ; -- End function
	.private_extern	__ZNSt3__114__split_bufferIPN7sc_core18sc_signal_inout_ifIiEERNS_9allocatorIS4_EEED2Ev ; -- Begin function _ZNSt3__114__split_bufferIPN7sc_core18sc_signal_inout_ifIiEERNS_9allocatorIS4_EEED2Ev
	.globl	__ZNSt3__114__split_bufferIPN7sc_core18sc_signal_inout_ifIiEERNS_9allocatorIS4_EEED2Ev
	.weak_def_can_be_hidden	__ZNSt3__114__split_bufferIPN7sc_core18sc_signal_inout_ifIiEERNS_9allocatorIS4_EEED2Ev
	.p2align	2
__ZNSt3__114__split_bufferIPN7sc_core18sc_signal_inout_ifIiEERNS_9allocatorIS4_EEED2Ev: ; @_ZNSt3__114__split_bufferIPN7sc_core18sc_signal_inout_ifIiEERNS_9allocatorIS4_EEED2Ev
Lfunc_begin13:
	.cfi_startproc
	.cfi_personality 155, ___gxx_personality_v0
	.cfi_lsda 16, Lexception13
; %bb.0:
	sub	sp, sp, #64
	stp	x29, x30, [sp, #48]             ; 16-byte Folded Spill
	add	x29, sp, #48
	.cfi_def_cfa w29, 16
	.cfi_offset w30, -8
	.cfi_offset w29, -16
	stur	x0, [x29, #-16]
	ldur	x0, [x29, #-16]
	str	x0, [sp, #24]                   ; 8-byte Folded Spill
	mov	x8, x0
	stur	x8, [x29, #-8]
	bl	__ZNSt3__114__split_bufferIPN7sc_core18sc_signal_inout_ifIiEERNS_9allocatorIS4_EEE5clearB8ne200100Ev
	ldr	x8, [sp, #24]                   ; 8-byte Folded Reload
	ldr	x8, [x8]
	cbz	x8, LBB145_3
	b	LBB145_1
LBB145_1:
	ldr	x0, [sp, #24]                   ; 8-byte Folded Reload
	ldr	x8, [x0, #32]
	str	x8, [sp]                        ; 8-byte Folded Spill
	ldr	x8, [x0]
	str	x8, [sp, #8]                    ; 8-byte Folded Spill
Ltmp128:
	bl	__ZNKSt3__114__split_bufferIPN7sc_core18sc_signal_inout_ifIiEERNS_9allocatorIS4_EEE8capacityB8ne200100Ev
	str	x0, [sp, #16]                   ; 8-byte Folded Spill
Ltmp129:
	b	LBB145_2
LBB145_2:
	ldr	x2, [sp, #16]                   ; 8-byte Folded Reload
	ldr	x1, [sp, #8]                    ; 8-byte Folded Reload
	ldr	x0, [sp]                        ; 8-byte Folded Reload
	bl	__ZNSt3__116allocator_traitsINS_9allocatorIPN7sc_core18sc_signal_inout_ifIiEEEEE10deallocateB8ne200100ERS6_PS5_m
	b	LBB145_3
LBB145_3:
	ldur	x0, [x29, #-8]
	ldp	x29, x30, [sp, #48]             ; 16-byte Folded Reload
	add	sp, sp, #64
	ret
LBB145_4:
Ltmp130:
	bl	___clang_call_terminate
Lfunc_end13:
	.cfi_endproc
	.section	__TEXT,__gcc_except_tab
	.p2align	2, 0x0
GCC_except_table145:
Lexception13:
	.byte	255                             ; @LPStart Encoding = omit
	.byte	155                             ; @TType Encoding = indirect pcrel sdata4
	.uleb128 Lttbase7-Lttbaseref7
Lttbaseref7:
	.byte	1                               ; Call site Encoding = uleb128
	.uleb128 Lcst_end13-Lcst_begin13
Lcst_begin13:
	.uleb128 Ltmp128-Lfunc_begin13          ; >> Call Site 1 <<
	.uleb128 Ltmp129-Ltmp128                ;   Call between Ltmp128 and Ltmp129
	.uleb128 Ltmp130-Lfunc_begin13          ;     jumps to Ltmp130
	.byte	1                               ;   On action: 1
Lcst_end13:
	.byte	1                               ; >> Action Record 1 <<
                                        ;   Catch TypeInfo 1
	.byte	0                               ;   No further actions
	.p2align	2, 0x0
                                        ; >> Catch TypeInfos <<
	.long	0                               ; TypeInfo 1
Lttbase7:
	.p2align	2, 0x0
                                        ; -- End function
	.section	__TEXT,__text,regular,pure_instructions
	.private_extern	__ZNSt3__114__split_bufferIPN7sc_core18sc_signal_inout_ifIiEERNS_9allocatorIS4_EEE5clearB8ne200100Ev ; -- Begin function _ZNSt3__114__split_bufferIPN7sc_core18sc_signal_inout_ifIiEERNS_9allocatorIS4_EEE5clearB8ne200100Ev
	.globl	__ZNSt3__114__split_bufferIPN7sc_core18sc_signal_inout_ifIiEERNS_9allocatorIS4_EEE5clearB8ne200100Ev
	.weak_definition	__ZNSt3__114__split_bufferIPN7sc_core18sc_signal_inout_ifIiEERNS_9allocatorIS4_EEE5clearB8ne200100Ev
	.p2align	2
__ZNSt3__114__split_bufferIPN7sc_core18sc_signal_inout_ifIiEERNS_9allocatorIS4_EEE5clearB8ne200100Ev: ; @_ZNSt3__114__split_bufferIPN7sc_core18sc_signal_inout_ifIiEERNS_9allocatorIS4_EEE5clearB8ne200100Ev
	.cfi_startproc
; %bb.0:
	sub	sp, sp, #32
	stp	x29, x30, [sp, #16]             ; 16-byte Folded Spill
	add	x29, sp, #16
	.cfi_def_cfa w29, 16
	.cfi_offset w30, -8
	.cfi_offset w29, -16
	str	x0, [sp, #8]
	ldr	x0, [sp, #8]
	ldr	x1, [x0, #8]
	bl	__ZNSt3__114__split_bufferIPN7sc_core18sc_signal_inout_ifIiEERNS_9allocatorIS4_EEE17__destruct_at_endB8ne200100EPS4_
	ldp	x29, x30, [sp, #16]             ; 16-byte Folded Reload
	add	sp, sp, #32
	ret
	.cfi_endproc
                                        ; -- End function
	.private_extern	__ZNKSt3__114__split_bufferIPN7sc_core18sc_signal_inout_ifIiEERNS_9allocatorIS4_EEE8capacityB8ne200100Ev ; -- Begin function _ZNKSt3__114__split_bufferIPN7sc_core18sc_signal_inout_ifIiEERNS_9allocatorIS4_EEE8capacityB8ne200100Ev
	.globl	__ZNKSt3__114__split_bufferIPN7sc_core18sc_signal_inout_ifIiEERNS_9allocatorIS4_EEE8capacityB8ne200100Ev
	.weak_definition	__ZNKSt3__114__split_bufferIPN7sc_core18sc_signal_inout_ifIiEERNS_9allocatorIS4_EEE8capacityB8ne200100Ev
	.p2align	2
__ZNKSt3__114__split_bufferIPN7sc_core18sc_signal_inout_ifIiEERNS_9allocatorIS4_EEE8capacityB8ne200100Ev: ; @_ZNKSt3__114__split_bufferIPN7sc_core18sc_signal_inout_ifIiEERNS_9allocatorIS4_EEE8capacityB8ne200100Ev
	.cfi_startproc
; %bb.0:
	sub	sp, sp, #16
	.cfi_def_cfa_offset 16
	str	x0, [sp, #8]
	ldr	x9, [sp, #8]
	ldr	x8, [x9, #24]
	ldr	x9, [x9]
	subs	x8, x8, x9
	mov	x9, #8                          ; =0x8
	sdiv	x0, x8, x9
	add	sp, sp, #16
	ret
	.cfi_endproc
                                        ; -- End function
	.private_extern	__ZNSt3__114__split_bufferIPN7sc_core18sc_signal_inout_ifIiEERNS_9allocatorIS4_EEE17__destruct_at_endB8ne200100EPS4_ ; -- Begin function _ZNSt3__114__split_bufferIPN7sc_core18sc_signal_inout_ifIiEERNS_9allocatorIS4_EEE17__destruct_at_endB8ne200100EPS4_
	.globl	__ZNSt3__114__split_bufferIPN7sc_core18sc_signal_inout_ifIiEERNS_9allocatorIS4_EEE17__destruct_at_endB8ne200100EPS4_
	.weak_definition	__ZNSt3__114__split_bufferIPN7sc_core18sc_signal_inout_ifIiEERNS_9allocatorIS4_EEE17__destruct_at_endB8ne200100EPS4_
	.p2align	2
__ZNSt3__114__split_bufferIPN7sc_core18sc_signal_inout_ifIiEERNS_9allocatorIS4_EEE17__destruct_at_endB8ne200100EPS4_: ; @_ZNSt3__114__split_bufferIPN7sc_core18sc_signal_inout_ifIiEERNS_9allocatorIS4_EEE17__destruct_at_endB8ne200100EPS4_
	.cfi_startproc
; %bb.0:
	sub	sp, sp, #48
	stp	x29, x30, [sp, #32]             ; 16-byte Folded Spill
	add	x29, sp, #32
	.cfi_def_cfa w29, 16
	.cfi_offset w30, -8
	.cfi_offset w29, -16
	stur	x0, [x29, #-8]
	str	x1, [sp, #16]
	ldur	x0, [x29, #-8]
	ldr	x1, [sp, #16]
	bl	__ZNSt3__114__split_bufferIPN7sc_core18sc_signal_inout_ifIiEERNS_9allocatorIS4_EEE17__destruct_at_endB8ne200100EPS4_NS_17integral_constantIbLb0EEE
	ldp	x29, x30, [sp, #32]             ; 16-byte Folded Reload
	add	sp, sp, #48
	ret
	.cfi_endproc
                                        ; -- End function
	.private_extern	__ZNSt3__114__split_bufferIPN7sc_core18sc_signal_inout_ifIiEERNS_9allocatorIS4_EEE17__destruct_at_endB8ne200100EPS4_NS_17integral_constantIbLb0EEE ; -- Begin function _ZNSt3__114__split_bufferIPN7sc_core18sc_signal_inout_ifIiEERNS_9allocatorIS4_EEE17__destruct_at_endB8ne200100EPS4_NS_17integral_constantIbLb0EEE
	.globl	__ZNSt3__114__split_bufferIPN7sc_core18sc_signal_inout_ifIiEERNS_9allocatorIS4_EEE17__destruct_at_endB8ne200100EPS4_NS_17integral_constantIbLb0EEE
	.weak_definition	__ZNSt3__114__split_bufferIPN7sc_core18sc_signal_inout_ifIiEERNS_9allocatorIS4_EEE17__destruct_at_endB8ne200100EPS4_NS_17integral_constantIbLb0EEE
	.p2align	2
__ZNSt3__114__split_bufferIPN7sc_core18sc_signal_inout_ifIiEERNS_9allocatorIS4_EEE17__destruct_at_endB8ne200100EPS4_NS_17integral_constantIbLb0EEE: ; @_ZNSt3__114__split_bufferIPN7sc_core18sc_signal_inout_ifIiEERNS_9allocatorIS4_EEE17__destruct_at_endB8ne200100EPS4_NS_17integral_constantIbLb0EEE
Lfunc_begin14:
	.cfi_startproc
	.cfi_personality 155, ___gxx_personality_v0
	.cfi_lsda 16, Lexception14
; %bb.0:
	sub	sp, sp, #64
	stp	x29, x30, [sp, #48]             ; 16-byte Folded Spill
	add	x29, sp, #48
	.cfi_def_cfa w29, 16
	.cfi_offset w30, -8
	.cfi_offset w29, -16
	stur	x0, [x29, #-16]
	str	x1, [sp, #24]
	ldur	x8, [x29, #-16]
	str	x8, [sp, #16]                   ; 8-byte Folded Spill
	b	LBB149_1
LBB149_1:                               ; =>This Inner Loop Header: Depth=1
	ldr	x9, [sp, #16]                   ; 8-byte Folded Reload
	ldr	x8, [sp, #24]
	ldr	x9, [x9, #16]
	subs	x8, x8, x9
	b.eq	LBB149_4
	b	LBB149_2
LBB149_2:                               ;   in Loop: Header=BB149_1 Depth=1
	ldr	x8, [sp, #16]                   ; 8-byte Folded Reload
	ldr	x9, [x8, #32]
	str	x9, [sp, #8]                    ; 8-byte Folded Spill
	ldr	x9, [x8, #16]
	subs	x0, x9, #8
	str	x0, [x8, #16]
	bl	__ZNSt3__112__to_addressB8ne200100IPN7sc_core18sc_signal_inout_ifIiEEEEPT_S6_
	mov	x1, x0
	ldr	x0, [sp, #8]                    ; 8-byte Folded Reload
Ltmp132:
	bl	__ZNSt3__116allocator_traitsINS_9allocatorIPN7sc_core18sc_signal_inout_ifIiEEEEE7destroyB8ne200100IS5_TnNS_9enable_ifIXsr13__has_destroyIS6_PT_EE5valueEiE4typeELi0EEEvRS6_SB_
Ltmp133:
	b	LBB149_3
LBB149_3:                               ;   in Loop: Header=BB149_1 Depth=1
	b	LBB149_1
LBB149_4:
	ldp	x29, x30, [sp, #48]             ; 16-byte Folded Reload
	add	sp, sp, #64
	ret
LBB149_5:
Ltmp134:
	bl	___clang_call_terminate
Lfunc_end14:
	.cfi_endproc
	.section	__TEXT,__gcc_except_tab
	.p2align	2, 0x0
GCC_except_table149:
Lexception14:
	.byte	255                             ; @LPStart Encoding = omit
	.byte	155                             ; @TType Encoding = indirect pcrel sdata4
	.uleb128 Lttbase8-Lttbaseref8
Lttbaseref8:
	.byte	1                               ; Call site Encoding = uleb128
	.uleb128 Lcst_end14-Lcst_begin14
Lcst_begin14:
	.uleb128 Ltmp132-Lfunc_begin14          ; >> Call Site 1 <<
	.uleb128 Ltmp133-Ltmp132                ;   Call between Ltmp132 and Ltmp133
	.uleb128 Ltmp134-Lfunc_begin14          ;     jumps to Ltmp134
	.byte	1                               ;   On action: 1
Lcst_end14:
	.byte	1                               ; >> Action Record 1 <<
                                        ;   Catch TypeInfo 1
	.byte	0                               ;   No further actions
	.p2align	2, 0x0
                                        ; >> Catch TypeInfos <<
	.long	0                               ; TypeInfo 1
Lttbase8:
	.p2align	2, 0x0
                                        ; -- End function
	.section	__TEXT,__text,regular,pure_instructions
	.globl	__ZN7sc_core8sc_inoutIiE5writeERKi ; -- Begin function _ZN7sc_core8sc_inoutIiE5writeERKi
	.weak_definition	__ZN7sc_core8sc_inoutIiE5writeERKi
	.p2align	2
__ZN7sc_core8sc_inoutIiE5writeERKi:     ; @_ZN7sc_core8sc_inoutIiE5writeERKi
	.cfi_startproc
; %bb.0:
	sub	sp, sp, #32
	stp	x29, x30, [sp, #16]             ; 16-byte Folded Spill
	add	x29, sp, #16
	.cfi_def_cfa w29, 16
	.cfi_offset w30, -8
	.cfi_offset w29, -16
	str	x0, [sp, #8]
	str	x1, [sp]
	ldr	x0, [sp, #8]
	bl	__ZN7sc_core9sc_port_bINS_18sc_signal_inout_ifIiEEEptEv
	mov	x8, x0
	ldr	x1, [sp]
	add	x0, x8, #8
	ldr	x8, [x8, #8]
	ldr	x8, [x8, #32]
	blr	x8
	ldp	x29, x30, [sp, #16]             ; 16-byte Folded Reload
	add	sp, sp, #32
	ret
	.cfi_endproc
                                        ; -- End function
	.globl	__ZN7sc_core9sc_port_bINS_18sc_signal_inout_ifIiEEEptEv ; -- Begin function _ZN7sc_core9sc_port_bINS_18sc_signal_inout_ifIiEEEptEv
	.weak_definition	__ZN7sc_core9sc_port_bINS_18sc_signal_inout_ifIiEEEptEv
	.p2align	2
__ZN7sc_core9sc_port_bINS_18sc_signal_inout_ifIiEEEptEv: ; @_ZN7sc_core9sc_port_bINS_18sc_signal_inout_ifIiEEEptEv
	.cfi_startproc
; %bb.0:
	sub	sp, sp, #32
	stp	x29, x30, [sp, #16]             ; 16-byte Folded Spill
	add	x29, sp, #16
	.cfi_def_cfa w29, 16
	.cfi_offset w30, -8
	.cfi_offset w29, -16
	str	x0, [sp, #8]
	ldr	x8, [sp, #8]
	str	x8, [sp]                        ; 8-byte Folded Spill
	ldr	x8, [x8, #64]
	cbnz	x8, LBB151_2
	b	LBB151_1
LBB151_1:
	ldr	x0, [sp]                        ; 8-byte Folded Reload
	adrp	x1, __ZN7sc_core13SC_ID_GET_IF_E@GOTPAGE
	ldr	x1, [x1, __ZN7sc_core13SC_ID_GET_IF_E@GOTPAGEOFF]
	adrp	x2, l_.str.11@PAGE
	add	x2, x2, l_.str.11@PAGEOFF
	bl	__ZNK7sc_core12sc_port_base12report_errorEPKcS2_
	bl	__ZN7sc_core8sc_abortEv
LBB151_2:
	ldr	x8, [sp]                        ; 8-byte Folded Reload
	ldr	x0, [x8, #64]
	ldp	x29, x30, [sp, #16]             ; 16-byte Folded Reload
	add	sp, sp, #32
	ret
	.cfi_endproc
                                        ; -- End function
	.private_extern	__ZNKSt3__16vectorIPN7sc_core18sc_signal_inout_ifIiEENS_9allocatorIS4_EEEixB8ne200100Em ; -- Begin function _ZNKSt3__16vectorIPN7sc_core18sc_signal_inout_ifIiEENS_9allocatorIS4_EEEixB8ne200100Em
	.globl	__ZNKSt3__16vectorIPN7sc_core18sc_signal_inout_ifIiEENS_9allocatorIS4_EEEixB8ne200100Em
	.weak_definition	__ZNKSt3__16vectorIPN7sc_core18sc_signal_inout_ifIiEENS_9allocatorIS4_EEEixB8ne200100Em
	.p2align	2
__ZNKSt3__16vectorIPN7sc_core18sc_signal_inout_ifIiEENS_9allocatorIS4_EEEixB8ne200100Em: ; @_ZNKSt3__16vectorIPN7sc_core18sc_signal_inout_ifIiEENS_9allocatorIS4_EEEixB8ne200100Em
	.cfi_startproc
; %bb.0:
	sub	sp, sp, #16
	.cfi_def_cfa_offset 16
	str	x0, [sp, #8]
	str	x1, [sp]
	ldr	x8, [sp, #8]
	ldr	x8, [x8]
	ldr	x9, [sp]
	add	x0, x8, x9, lsl #3
	add	sp, sp, #16
	ret
	.cfi_endproc
                                        ; -- End function
	.globl	__ZNK7sc_core5sc_inIbE4readEv   ; -- Begin function _ZNK7sc_core5sc_inIbE4readEv
	.weak_definition	__ZNK7sc_core5sc_inIbE4readEv
	.p2align	2
__ZNK7sc_core5sc_inIbE4readEv:          ; @_ZNK7sc_core5sc_inIbE4readEv
	.cfi_startproc
; %bb.0:
	sub	sp, sp, #32
	stp	x29, x30, [sp, #16]             ; 16-byte Folded Spill
	add	x29, sp, #16
	.cfi_def_cfa w29, 16
	.cfi_offset w30, -8
	.cfi_offset w29, -16
	str	x0, [sp, #8]
	ldr	x0, [sp, #8]
	bl	__ZNK7sc_core9sc_port_bINS_15sc_signal_in_ifIbEEEptEv
	ldr	x8, [x0]
	ldr	x8, [x8, #56]
	blr	x8
	ldp	x29, x30, [sp, #16]             ; 16-byte Folded Reload
	add	sp, sp, #32
	ret
	.cfi_endproc
                                        ; -- End function
	.private_extern	__ZNSt3__1lsB8ne200100INS_11char_traitsIcEEEERNS_13basic_ostreamIcT_EES6_PKc ; -- Begin function _ZNSt3__1lsB8ne200100INS_11char_traitsIcEEEERNS_13basic_ostreamIcT_EES6_PKc
	.globl	__ZNSt3__1lsB8ne200100INS_11char_traitsIcEEEERNS_13basic_ostreamIcT_EES6_PKc
	.weak_definition	__ZNSt3__1lsB8ne200100INS_11char_traitsIcEEEERNS_13basic_ostreamIcT_EES6_PKc
	.p2align	2
__ZNSt3__1lsB8ne200100INS_11char_traitsIcEEEERNS_13basic_ostreamIcT_EES6_PKc: ; @_ZNSt3__1lsB8ne200100INS_11char_traitsIcEEEERNS_13basic_ostreamIcT_EES6_PKc
	.cfi_startproc
; %bb.0:
	sub	sp, sp, #48
	stp	x29, x30, [sp, #32]             ; 16-byte Folded Spill
	add	x29, sp, #32
	.cfi_def_cfa w29, 16
	.cfi_offset w30, -8
	.cfi_offset w29, -16
	stur	x0, [x29, #-8]
	str	x1, [sp, #16]
	ldur	x8, [x29, #-8]
	str	x8, [sp, #8]                    ; 8-byte Folded Spill
	ldr	x8, [sp, #16]
	str	x8, [sp]                        ; 8-byte Folded Spill
	ldr	x0, [sp, #16]
	bl	__ZNSt3__111char_traitsIcE6lengthB8ne200100EPKc
	ldr	x1, [sp]                        ; 8-byte Folded Reload
	mov	x2, x0
	ldr	x0, [sp, #8]                    ; 8-byte Folded Reload
	bl	__ZNSt3__124__put_character_sequenceB8ne200100IcNS_11char_traitsIcEEEERNS_13basic_ostreamIT_T0_EES7_PKS4_m
	ldp	x29, x30, [sp, #32]             ; 16-byte Folded Reload
	add	sp, sp, #48
	ret
	.cfi_endproc
                                        ; -- End function
	.private_extern	__ZNSt3__113basic_ostreamIcNS_11char_traitsIcEEElsB8ne200100EPFRS3_S4_E ; -- Begin function _ZNSt3__113basic_ostreamIcNS_11char_traitsIcEEElsB8ne200100EPFRS3_S4_E
	.globl	__ZNSt3__113basic_ostreamIcNS_11char_traitsIcEEElsB8ne200100EPFRS3_S4_E
	.weak_definition	__ZNSt3__113basic_ostreamIcNS_11char_traitsIcEEElsB8ne200100EPFRS3_S4_E
	.p2align	2
__ZNSt3__113basic_ostreamIcNS_11char_traitsIcEEElsB8ne200100EPFRS3_S4_E: ; @_ZNSt3__113basic_ostreamIcNS_11char_traitsIcEEElsB8ne200100EPFRS3_S4_E
	.cfi_startproc
; %bb.0:
	sub	sp, sp, #32
	stp	x29, x30, [sp, #16]             ; 16-byte Folded Spill
	add	x29, sp, #16
	.cfi_def_cfa w29, 16
	.cfi_offset w30, -8
	.cfi_offset w29, -16
	str	x0, [sp, #8]
	str	x1, [sp]
	ldr	x0, [sp, #8]
	ldr	x8, [sp]
	blr	x8
	ldp	x29, x30, [sp, #16]             ; 16-byte Folded Reload
	add	sp, sp, #32
	ret
	.cfi_endproc
                                        ; -- End function
	.private_extern	__ZNSt3__14endlB8ne200100IcNS_11char_traitsIcEEEERNS_13basic_ostreamIT_T0_EES7_ ; -- Begin function _ZNSt3__14endlB8ne200100IcNS_11char_traitsIcEEEERNS_13basic_ostreamIT_T0_EES7_
	.globl	__ZNSt3__14endlB8ne200100IcNS_11char_traitsIcEEEERNS_13basic_ostreamIT_T0_EES7_
	.weak_definition	__ZNSt3__14endlB8ne200100IcNS_11char_traitsIcEEEERNS_13basic_ostreamIT_T0_EES7_
	.p2align	2
__ZNSt3__14endlB8ne200100IcNS_11char_traitsIcEEEERNS_13basic_ostreamIT_T0_EES7_: ; @_ZNSt3__14endlB8ne200100IcNS_11char_traitsIcEEEERNS_13basic_ostreamIT_T0_EES7_
	.cfi_startproc
; %bb.0:
	sub	sp, sp, #32
	stp	x29, x30, [sp, #16]             ; 16-byte Folded Spill
	add	x29, sp, #16
	.cfi_def_cfa w29, 16
	.cfi_offset w30, -8
	.cfi_offset w29, -16
	str	x0, [sp, #8]
	ldr	x8, [sp, #8]
	str	x8, [sp]                        ; 8-byte Folded Spill
	ldr	x8, [sp, #8]
	ldr	x9, [x8]
	ldur	x9, [x9, #-24]
	add	x0, x8, x9
	mov	w1, #10                         ; =0xa
	bl	__ZNKSt3__19basic_iosIcNS_11char_traitsIcEEE5widenB8ne200100Ec
	mov	x1, x0
	ldr	x0, [sp]                        ; 8-byte Folded Reload
	bl	__ZNSt3__113basic_ostreamIcNS_11char_traitsIcEEE3putEc
	ldr	x0, [sp, #8]
	bl	__ZNSt3__113basic_ostreamIcNS_11char_traitsIcEEE5flushEv
	ldr	x0, [sp, #8]
	ldp	x29, x30, [sp, #16]             ; 16-byte Folded Reload
	add	sp, sp, #32
	ret
	.cfi_endproc
                                        ; -- End function
	.globl	__ZNK7sc_core9sc_port_bINS_15sc_signal_in_ifIbEEEptEv ; -- Begin function _ZNK7sc_core9sc_port_bINS_15sc_signal_in_ifIbEEEptEv
	.weak_definition	__ZNK7sc_core9sc_port_bINS_15sc_signal_in_ifIbEEEptEv
	.p2align	2
__ZNK7sc_core9sc_port_bINS_15sc_signal_in_ifIbEEEptEv: ; @_ZNK7sc_core9sc_port_bINS_15sc_signal_in_ifIbEEEptEv
	.cfi_startproc
; %bb.0:
	sub	sp, sp, #32
	stp	x29, x30, [sp, #16]             ; 16-byte Folded Spill
	add	x29, sp, #16
	.cfi_def_cfa w29, 16
	.cfi_offset w30, -8
	.cfi_offset w29, -16
	str	x0, [sp, #8]
	ldr	x0, [sp, #8]
	bl	__ZN7sc_core9sc_port_bINS_15sc_signal_in_ifIbEEEptEv
	ldp	x29, x30, [sp, #16]             ; 16-byte Folded Reload
	add	sp, sp, #32
	ret
	.cfi_endproc
                                        ; -- End function
	.globl	__ZN7sc_core9sc_port_bINS_15sc_signal_in_ifIbEEEptEv ; -- Begin function _ZN7sc_core9sc_port_bINS_15sc_signal_in_ifIbEEEptEv
	.weak_definition	__ZN7sc_core9sc_port_bINS_15sc_signal_in_ifIbEEEptEv
	.p2align	2
__ZN7sc_core9sc_port_bINS_15sc_signal_in_ifIbEEEptEv: ; @_ZN7sc_core9sc_port_bINS_15sc_signal_in_ifIbEEEptEv
	.cfi_startproc
; %bb.0:
	sub	sp, sp, #32
	stp	x29, x30, [sp, #16]             ; 16-byte Folded Spill
	add	x29, sp, #16
	.cfi_def_cfa w29, 16
	.cfi_offset w30, -8
	.cfi_offset w29, -16
	str	x0, [sp, #8]
	ldr	x8, [sp, #8]
	str	x8, [sp]                        ; 8-byte Folded Spill
	ldr	x8, [x8, #64]
	cbnz	x8, LBB158_2
	b	LBB158_1
LBB158_1:
	ldr	x0, [sp]                        ; 8-byte Folded Reload
	adrp	x1, __ZN7sc_core13SC_ID_GET_IF_E@GOTPAGE
	ldr	x1, [x1, __ZN7sc_core13SC_ID_GET_IF_E@GOTPAGEOFF]
	adrp	x2, l_.str.11@PAGE
	add	x2, x2, l_.str.11@PAGEOFF
	bl	__ZNK7sc_core12sc_port_base12report_errorEPKcS2_
	bl	__ZN7sc_core8sc_abortEv
LBB158_2:
	ldr	x8, [sp]                        ; 8-byte Folded Reload
	ldr	x0, [x8, #64]
	ldp	x29, x30, [sp, #16]             ; 16-byte Folded Reload
	add	sp, sp, #32
	ret
	.cfi_endproc
                                        ; -- End function
	.private_extern	__ZNSt3__124__put_character_sequenceB8ne200100IcNS_11char_traitsIcEEEERNS_13basic_ostreamIT_T0_EES7_PKS4_m ; -- Begin function _ZNSt3__124__put_character_sequenceB8ne200100IcNS_11char_traitsIcEEEERNS_13basic_ostreamIT_T0_EES7_PKS4_m
	.globl	__ZNSt3__124__put_character_sequenceB8ne200100IcNS_11char_traitsIcEEEERNS_13basic_ostreamIT_T0_EES7_PKS4_m
	.weak_definition	__ZNSt3__124__put_character_sequenceB8ne200100IcNS_11char_traitsIcEEEERNS_13basic_ostreamIT_T0_EES7_PKS4_m
	.p2align	2
__ZNSt3__124__put_character_sequenceB8ne200100IcNS_11char_traitsIcEEEERNS_13basic_ostreamIT_T0_EES7_PKS4_m: ; @_ZNSt3__124__put_character_sequenceB8ne200100IcNS_11char_traitsIcEEEERNS_13basic_ostreamIT_T0_EES7_PKS4_m
Lfunc_begin15:
	.cfi_startproc
	.cfi_personality 155, ___gxx_personality_v0
	.cfi_lsda 16, Lexception15
; %bb.0:
	sub	sp, sp, #160
	stp	x29, x30, [sp, #144]            ; 16-byte Folded Spill
	add	x29, sp, #144
	.cfi_def_cfa w29, 16
	.cfi_offset w30, -8
	.cfi_offset w29, -16
	stur	x0, [x29, #-8]
	stur	x1, [x29, #-16]
	stur	x2, [x29, #-24]
	ldur	x1, [x29, #-8]
Ltmp136:
	sub	x0, x29, #40
	bl	__ZNSt3__113basic_ostreamIcNS_11char_traitsIcEEE6sentryC1ERS3_
Ltmp137:
	b	LBB159_1
LBB159_1:
Ltmp139:
	sub	x0, x29, #40
	bl	__ZNKSt3__113basic_ostreamIcNS_11char_traitsIcEEE6sentrycvbB8ne200100Ev
	str	w0, [sp, #68]                   ; 4-byte Folded Spill
Ltmp140:
	b	LBB159_2
LBB159_2:
	ldr	w8, [sp, #68]                   ; 4-byte Folded Reload
	tbz	w8, #0, LBB159_18
	b	LBB159_3
LBB159_3:
	ldur	x1, [x29, #-8]
	add	x0, sp, #72
	bl	__ZNSt3__119ostreambuf_iteratorIcNS_11char_traitsIcEEEC1B8ne200100ERNS_13basic_ostreamIcS2_EE
	ldur	x8, [x29, #-16]
	str	x8, [sp, #56]                   ; 8-byte Folded Spill
	ldur	x8, [x29, #-8]
	ldr	x9, [x8]
	ldur	x9, [x9, #-24]
	add	x0, x8, x9
Ltmp141:
	bl	__ZNKSt3__18ios_base5flagsB8ne200100Ev
	str	w0, [sp, #64]                   ; 4-byte Folded Spill
Ltmp142:
	b	LBB159_4
LBB159_4:
	ldr	w8, [sp, #64]                   ; 4-byte Folded Reload
	mov	w9, #176                        ; =0xb0
	and	w8, w8, w9
	subs	w8, w8, #32
	b.ne	LBB159_6
	b	LBB159_5
LBB159_5:
	ldur	x8, [x29, #-16]
	ldur	x9, [x29, #-24]
	add	x8, x8, x9
	str	x8, [sp, #48]                   ; 8-byte Folded Spill
	b	LBB159_7
LBB159_6:
	ldur	x8, [x29, #-16]
	str	x8, [sp, #48]                   ; 8-byte Folded Spill
	b	LBB159_7
LBB159_7:
	ldr	x8, [sp, #48]                   ; 8-byte Folded Reload
	str	x8, [sp, #16]                   ; 8-byte Folded Spill
	ldur	x8, [x29, #-16]
	ldur	x9, [x29, #-24]
	add	x8, x8, x9
	str	x8, [sp, #24]                   ; 8-byte Folded Spill
	ldur	x8, [x29, #-8]
	ldr	x9, [x8]
	ldur	x9, [x9, #-24]
	add	x8, x8, x9
	str	x8, [sp, #32]                   ; 8-byte Folded Spill
	ldur	x8, [x29, #-8]
	ldr	x9, [x8]
	ldur	x9, [x9, #-24]
	add	x0, x8, x9
Ltmp143:
	bl	__ZNKSt3__19basic_iosIcNS_11char_traitsIcEEE4fillB8ne200100Ev
	str	w0, [sp, #44]                   ; 4-byte Folded Spill
Ltmp144:
	b	LBB159_8
LBB159_8:
	ldr	w5, [sp, #44]                   ; 4-byte Folded Reload
	ldr	x4, [sp, #32]                   ; 8-byte Folded Reload
	ldr	x3, [sp, #24]                   ; 8-byte Folded Reload
	ldr	x2, [sp, #16]                   ; 8-byte Folded Reload
	ldr	x1, [sp, #56]                   ; 8-byte Folded Reload
	ldr	x0, [sp, #72]
Ltmp145:
	bl	__ZNSt3__116__pad_and_outputB8ne200100IcNS_11char_traitsIcEEEENS_19ostreambuf_iteratorIT_T0_EES6_PKS4_S8_S8_RNS_8ios_baseES4_
	str	x0, [sp, #8]                    ; 8-byte Folded Spill
Ltmp146:
	b	LBB159_9
LBB159_9:
	ldr	x8, [sp, #8]                    ; 8-byte Folded Reload
	sub	x0, x29, #64
	stur	x8, [x29, #-64]
	bl	__ZNKSt3__119ostreambuf_iteratorIcNS_11char_traitsIcEEE6failedB8ne200100Ev
	tbz	w0, #0, LBB159_17
	b	LBB159_10
LBB159_10:
	ldur	x8, [x29, #-8]
	ldr	x9, [x8]
	ldur	x9, [x9, #-24]
	add	x0, x8, x9
Ltmp147:
	mov	w1, #5                          ; =0x5
	bl	__ZNSt3__19basic_iosIcNS_11char_traitsIcEEE8setstateB8ne200100Ej
Ltmp148:
	b	LBB159_11
LBB159_11:
	b	LBB159_17
LBB159_12:
Ltmp138:
	stur	x0, [x29, #-48]
	mov	x8, x1
	stur	w8, [x29, #-52]
	b	LBB159_14
LBB159_13:
Ltmp149:
	stur	x0, [x29, #-48]
	mov	x8, x1
	stur	w8, [x29, #-52]
	sub	x0, x29, #40
	bl	__ZNSt3__113basic_ostreamIcNS_11char_traitsIcEEE6sentryD1Ev
	b	LBB159_14
LBB159_14:
	ldur	x0, [x29, #-48]
	bl	___cxa_begin_catch
	ldur	x8, [x29, #-8]
	ldr	x9, [x8]
	ldur	x9, [x9, #-24]
	add	x0, x8, x9
Ltmp150:
	bl	__ZNSt3__18ios_base33__set_badbit_and_consider_rethrowEv
Ltmp151:
	b	LBB159_15
LBB159_15:
	bl	___cxa_end_catch
	b	LBB159_16
LBB159_16:
	ldur	x0, [x29, #-8]
	ldp	x29, x30, [sp, #144]            ; 16-byte Folded Reload
	add	sp, sp, #160
	ret
LBB159_17:
	b	LBB159_18
LBB159_18:
	sub	x0, x29, #40
	bl	__ZNSt3__113basic_ostreamIcNS_11char_traitsIcEEE6sentryD1Ev
	b	LBB159_16
LBB159_19:
Ltmp152:
	stur	x0, [x29, #-48]
	mov	x8, x1
	stur	w8, [x29, #-52]
Ltmp153:
	bl	___cxa_end_catch
Ltmp154:
	b	LBB159_20
LBB159_20:
	b	LBB159_21
LBB159_21:
	ldur	x0, [x29, #-48]
	bl	__Unwind_Resume
LBB159_22:
Ltmp155:
	bl	___clang_call_terminate
Lfunc_end15:
	.cfi_endproc
	.section	__TEXT,__gcc_except_tab
	.p2align	2, 0x0
GCC_except_table159:
Lexception15:
	.byte	255                             ; @LPStart Encoding = omit
	.byte	155                             ; @TType Encoding = indirect pcrel sdata4
	.uleb128 Lttbase9-Lttbaseref9
Lttbaseref9:
	.byte	1                               ; Call site Encoding = uleb128
	.uleb128 Lcst_end15-Lcst_begin15
Lcst_begin15:
	.uleb128 Ltmp136-Lfunc_begin15          ; >> Call Site 1 <<
	.uleb128 Ltmp137-Ltmp136                ;   Call between Ltmp136 and Ltmp137
	.uleb128 Ltmp138-Lfunc_begin15          ;     jumps to Ltmp138
	.byte	1                               ;   On action: 1
	.uleb128 Ltmp139-Lfunc_begin15          ; >> Call Site 2 <<
	.uleb128 Ltmp148-Ltmp139                ;   Call between Ltmp139 and Ltmp148
	.uleb128 Ltmp149-Lfunc_begin15          ;     jumps to Ltmp149
	.byte	1                               ;   On action: 1
	.uleb128 Ltmp148-Lfunc_begin15          ; >> Call Site 3 <<
	.uleb128 Ltmp150-Ltmp148                ;   Call between Ltmp148 and Ltmp150
	.byte	0                               ;     has no landing pad
	.byte	0                               ;   On action: cleanup
	.uleb128 Ltmp150-Lfunc_begin15          ; >> Call Site 4 <<
	.uleb128 Ltmp151-Ltmp150                ;   Call between Ltmp150 and Ltmp151
	.uleb128 Ltmp152-Lfunc_begin15          ;     jumps to Ltmp152
	.byte	0                               ;   On action: cleanup
	.uleb128 Ltmp151-Lfunc_begin15          ; >> Call Site 5 <<
	.uleb128 Ltmp153-Ltmp151                ;   Call between Ltmp151 and Ltmp153
	.byte	0                               ;     has no landing pad
	.byte	0                               ;   On action: cleanup
	.uleb128 Ltmp153-Lfunc_begin15          ; >> Call Site 6 <<
	.uleb128 Ltmp154-Ltmp153                ;   Call between Ltmp153 and Ltmp154
	.uleb128 Ltmp155-Lfunc_begin15          ;     jumps to Ltmp155
	.byte	1                               ;   On action: 1
	.uleb128 Ltmp154-Lfunc_begin15          ; >> Call Site 7 <<
	.uleb128 Lfunc_end15-Ltmp154            ;   Call between Ltmp154 and Lfunc_end15
	.byte	0                               ;     has no landing pad
	.byte	0                               ;   On action: cleanup
Lcst_end15:
	.byte	1                               ; >> Action Record 1 <<
                                        ;   Catch TypeInfo 1
	.byte	0                               ;   No further actions
	.p2align	2, 0x0
                                        ; >> Catch TypeInfos <<
	.long	0                               ; TypeInfo 1
Lttbase9:
	.p2align	2, 0x0
                                        ; -- End function
	.section	__TEXT,__text,regular,pure_instructions
	.private_extern	__ZNSt3__111char_traitsIcE6lengthB8ne200100EPKc ; -- Begin function _ZNSt3__111char_traitsIcE6lengthB8ne200100EPKc
	.globl	__ZNSt3__111char_traitsIcE6lengthB8ne200100EPKc
	.weak_definition	__ZNSt3__111char_traitsIcE6lengthB8ne200100EPKc
	.p2align	2
__ZNSt3__111char_traitsIcE6lengthB8ne200100EPKc: ; @_ZNSt3__111char_traitsIcE6lengthB8ne200100EPKc
	.cfi_startproc
; %bb.0:
	sub	sp, sp, #32
	stp	x29, x30, [sp, #16]             ; 16-byte Folded Spill
	add	x29, sp, #16
	.cfi_def_cfa w29, 16
	.cfi_offset w30, -8
	.cfi_offset w29, -16
	str	x0, [sp, #8]
	ldr	x0, [sp, #8]
	bl	__ZNSt3__118__constexpr_strlenB8ne200100IcEEmPKT_
	ldp	x29, x30, [sp, #16]             ; 16-byte Folded Reload
	add	sp, sp, #32
	ret
	.cfi_endproc
                                        ; -- End function
	.private_extern	__ZNKSt3__113basic_ostreamIcNS_11char_traitsIcEEE6sentrycvbB8ne200100Ev ; -- Begin function _ZNKSt3__113basic_ostreamIcNS_11char_traitsIcEEE6sentrycvbB8ne200100Ev
	.globl	__ZNKSt3__113basic_ostreamIcNS_11char_traitsIcEEE6sentrycvbB8ne200100Ev
	.weak_definition	__ZNKSt3__113basic_ostreamIcNS_11char_traitsIcEEE6sentrycvbB8ne200100Ev
	.p2align	2
__ZNKSt3__113basic_ostreamIcNS_11char_traitsIcEEE6sentrycvbB8ne200100Ev: ; @_ZNKSt3__113basic_ostreamIcNS_11char_traitsIcEEE6sentrycvbB8ne200100Ev
	.cfi_startproc
; %bb.0:
	sub	sp, sp, #16
	.cfi_def_cfa_offset 16
	str	x0, [sp, #8]
	ldr	x8, [sp, #8]
	ldrb	w8, [x8]
	and	w0, w8, #0x1
	add	sp, sp, #16
	ret
	.cfi_endproc
                                        ; -- End function
	.private_extern	__ZNSt3__116__pad_and_outputB8ne200100IcNS_11char_traitsIcEEEENS_19ostreambuf_iteratorIT_T0_EES6_PKS4_S8_S8_RNS_8ios_baseES4_ ; -- Begin function _ZNSt3__116__pad_and_outputB8ne200100IcNS_11char_traitsIcEEEENS_19ostreambuf_iteratorIT_T0_EES6_PKS4_S8_S8_RNS_8ios_baseES4_
	.globl	__ZNSt3__116__pad_and_outputB8ne200100IcNS_11char_traitsIcEEEENS_19ostreambuf_iteratorIT_T0_EES6_PKS4_S8_S8_RNS_8ios_baseES4_
	.weak_definition	__ZNSt3__116__pad_and_outputB8ne200100IcNS_11char_traitsIcEEEENS_19ostreambuf_iteratorIT_T0_EES6_PKS4_S8_S8_RNS_8ios_baseES4_
	.p2align	2
__ZNSt3__116__pad_and_outputB8ne200100IcNS_11char_traitsIcEEEENS_19ostreambuf_iteratorIT_T0_EES6_PKS4_S8_S8_RNS_8ios_baseES4_: ; @_ZNSt3__116__pad_and_outputB8ne200100IcNS_11char_traitsIcEEEENS_19ostreambuf_iteratorIT_T0_EES6_PKS4_S8_S8_RNS_8ios_baseES4_
Lfunc_begin16:
	.cfi_startproc
	.cfi_personality 155, ___gxx_personality_v0
	.cfi_lsda 16, Lexception16
; %bb.0:
	sub	sp, sp, #160
	stp	x29, x30, [sp, #144]            ; 16-byte Folded Spill
	add	x29, sp, #144
	.cfi_def_cfa w29, 16
	.cfi_offset w30, -8
	.cfi_offset w29, -16
	stur	x0, [x29, #-16]
	stur	x1, [x29, #-24]
	stur	x2, [x29, #-32]
	stur	x3, [x29, #-40]
	stur	x4, [x29, #-48]
	sturb	w5, [x29, #-49]
	ldur	x8, [x29, #-16]
	cbnz	x8, LBB162_2
	b	LBB162_1
LBB162_1:
	ldur	x8, [x29, #-16]
	stur	x8, [x29, #-8]
	b	LBB162_23
LBB162_2:
	ldur	x8, [x29, #-40]
	ldur	x9, [x29, #-24]
	subs	x8, x8, x9
	stur	x8, [x29, #-64]
	ldur	x0, [x29, #-48]
	bl	__ZNKSt3__18ios_base5widthB8ne200100Ev
	str	x0, [sp, #72]
	ldr	x8, [sp, #72]
	ldur	x9, [x29, #-64]
	subs	x8, x8, x9
	b.le	LBB162_4
	b	LBB162_3
LBB162_3:
	ldur	x9, [x29, #-64]
	ldr	x8, [sp, #72]
	subs	x8, x8, x9
	str	x8, [sp, #72]
	b	LBB162_5
LBB162_4:
	str	xzr, [sp, #72]
	b	LBB162_5
LBB162_5:
	ldur	x8, [x29, #-32]
	ldur	x9, [x29, #-24]
	subs	x8, x8, x9
	str	x8, [sp, #64]
	ldr	x8, [sp, #64]
	subs	x8, x8, #0
	b.le	LBB162_9
	b	LBB162_6
LBB162_6:
	ldur	x0, [x29, #-16]
	ldur	x1, [x29, #-24]
	ldr	x2, [sp, #64]
	bl	__ZNSt3__115basic_streambufIcNS_11char_traitsIcEEE5sputnB8ne200100EPKcl
	ldr	x8, [sp, #64]
	subs	x8, x0, x8
	b.eq	LBB162_8
	b	LBB162_7
LBB162_7:
                                        ; kill: def $x8 killed $xzr
	stur	xzr, [x29, #-16]
	ldur	x8, [x29, #-16]
	stur	x8, [x29, #-8]
	b	LBB162_23
LBB162_8:
	b	LBB162_9
LBB162_9:
	ldr	x8, [sp, #72]
	subs	x8, x8, #0
	b.le	LBB162_18
	b	LBB162_10
LBB162_10:
	ldr	x1, [sp, #72]
	ldursb	w2, [x29, #-49]
	add	x0, sp, #40
	str	x0, [sp]                        ; 8-byte Folded Spill
	bl	__ZNSt3__112basic_stringIcNS_11char_traitsIcEENS_9allocatorIcEEEC1B8ne200100Emc
	ldr	x0, [sp]                        ; 8-byte Folded Reload
	ldur	x8, [x29, #-16]
	str	x8, [sp, #8]                    ; 8-byte Folded Spill
	bl	__ZNSt3__112basic_stringIcNS_11char_traitsIcEENS_9allocatorIcEEE4dataB8ne200100Ev
	mov	x1, x0
	ldr	x0, [sp, #8]                    ; 8-byte Folded Reload
	ldr	x2, [sp, #72]
Ltmp157:
	bl	__ZNSt3__115basic_streambufIcNS_11char_traitsIcEEE5sputnB8ne200100EPKcl
	str	x0, [sp, #16]                   ; 8-byte Folded Spill
Ltmp158:
	b	LBB162_11
LBB162_11:
	ldr	x8, [sp, #16]                   ; 8-byte Folded Reload
	ldr	x9, [sp, #72]
	subs	x8, x8, x9
	b.eq	LBB162_14
	b	LBB162_12
LBB162_12:
                                        ; kill: def $x8 killed $xzr
	stur	xzr, [x29, #-16]
	ldur	x8, [x29, #-16]
	stur	x8, [x29, #-8]
	mov	w8, #1                          ; =0x1
	str	w8, [sp, #24]
	b	LBB162_15
LBB162_13:
Ltmp159:
	str	x0, [sp, #32]
	mov	x8, x1
	str	w8, [sp, #28]
	add	x0, sp, #40
	bl	__ZNSt3__112basic_stringIcNS_11char_traitsIcEENS_9allocatorIcEEED1Ev
	b	LBB162_24
LBB162_14:
	str	wzr, [sp, #24]
	b	LBB162_15
LBB162_15:
	add	x0, sp, #40
	bl	__ZNSt3__112basic_stringIcNS_11char_traitsIcEENS_9allocatorIcEEED1Ev
	ldr	w8, [sp, #24]
	cbz	w8, LBB162_17
	b	LBB162_16
LBB162_16:
	b	LBB162_23
LBB162_17:
	b	LBB162_18
LBB162_18:
	ldur	x8, [x29, #-40]
	ldur	x9, [x29, #-32]
	subs	x8, x8, x9
	str	x8, [sp, #64]
	ldr	x8, [sp, #64]
	subs	x8, x8, #0
	b.le	LBB162_22
	b	LBB162_19
LBB162_19:
	ldur	x0, [x29, #-16]
	ldur	x1, [x29, #-32]
	ldr	x2, [sp, #64]
	bl	__ZNSt3__115basic_streambufIcNS_11char_traitsIcEEE5sputnB8ne200100EPKcl
	ldr	x8, [sp, #64]
	subs	x8, x0, x8
	b.eq	LBB162_21
	b	LBB162_20
LBB162_20:
                                        ; kill: def $x8 killed $xzr
	stur	xzr, [x29, #-16]
	ldur	x8, [x29, #-16]
	stur	x8, [x29, #-8]
	b	LBB162_23
LBB162_21:
	b	LBB162_22
LBB162_22:
	ldur	x0, [x29, #-48]
	mov	x1, #0                          ; =0x0
	bl	__ZNSt3__18ios_base5widthB8ne200100El
	ldur	x8, [x29, #-16]
	stur	x8, [x29, #-8]
	b	LBB162_23
LBB162_23:
	ldur	x0, [x29, #-8]
	ldp	x29, x30, [sp, #144]            ; 16-byte Folded Reload
	add	sp, sp, #160
	ret
LBB162_24:
	ldr	x0, [sp, #32]
	bl	__Unwind_Resume
; %bb.25:
Lfunc_end16:
	.cfi_endproc
	.section	__TEXT,__gcc_except_tab
	.p2align	2, 0x0
GCC_except_table162:
Lexception16:
	.byte	255                             ; @LPStart Encoding = omit
	.byte	255                             ; @TType Encoding = omit
	.byte	1                               ; Call site Encoding = uleb128
	.uleb128 Lcst_end16-Lcst_begin16
Lcst_begin16:
	.uleb128 Lfunc_begin16-Lfunc_begin16    ; >> Call Site 1 <<
	.uleb128 Ltmp157-Lfunc_begin16          ;   Call between Lfunc_begin16 and Ltmp157
	.byte	0                               ;     has no landing pad
	.byte	0                               ;   On action: cleanup
	.uleb128 Ltmp157-Lfunc_begin16          ; >> Call Site 2 <<
	.uleb128 Ltmp158-Ltmp157                ;   Call between Ltmp157 and Ltmp158
	.uleb128 Ltmp159-Lfunc_begin16          ;     jumps to Ltmp159
	.byte	0                               ;   On action: cleanup
	.uleb128 Ltmp158-Lfunc_begin16          ; >> Call Site 3 <<
	.uleb128 Lfunc_end16-Ltmp158            ;   Call between Ltmp158 and Lfunc_end16
	.byte	0                               ;     has no landing pad
	.byte	0                               ;   On action: cleanup
Lcst_end16:
	.p2align	2, 0x0
                                        ; -- End function
	.section	__TEXT,__text,regular,pure_instructions
	.private_extern	__ZNSt3__119ostreambuf_iteratorIcNS_11char_traitsIcEEEC1B8ne200100ERNS_13basic_ostreamIcS2_EE ; -- Begin function _ZNSt3__119ostreambuf_iteratorIcNS_11char_traitsIcEEEC1B8ne200100ERNS_13basic_ostreamIcS2_EE
	.globl	__ZNSt3__119ostreambuf_iteratorIcNS_11char_traitsIcEEEC1B8ne200100ERNS_13basic_ostreamIcS2_EE
	.weak_def_can_be_hidden	__ZNSt3__119ostreambuf_iteratorIcNS_11char_traitsIcEEEC1B8ne200100ERNS_13basic_ostreamIcS2_EE
	.p2align	2
__ZNSt3__119ostreambuf_iteratorIcNS_11char_traitsIcEEEC1B8ne200100ERNS_13basic_ostreamIcS2_EE: ; @_ZNSt3__119ostreambuf_iteratorIcNS_11char_traitsIcEEEC1B8ne200100ERNS_13basic_ostreamIcS2_EE
	.cfi_startproc
; %bb.0:
	sub	sp, sp, #48
	stp	x29, x30, [sp, #32]             ; 16-byte Folded Spill
	add	x29, sp, #32
	.cfi_def_cfa w29, 16
	.cfi_offset w30, -8
	.cfi_offset w29, -16
	stur	x0, [x29, #-8]
	str	x1, [sp, #16]
	ldur	x0, [x29, #-8]
	str	x0, [sp, #8]                    ; 8-byte Folded Spill
	ldr	x1, [sp, #16]
	bl	__ZNSt3__119ostreambuf_iteratorIcNS_11char_traitsIcEEEC2B8ne200100ERNS_13basic_ostreamIcS2_EE
	ldr	x0, [sp, #8]                    ; 8-byte Folded Reload
	ldp	x29, x30, [sp, #32]             ; 16-byte Folded Reload
	add	sp, sp, #48
	ret
	.cfi_endproc
                                        ; -- End function
	.private_extern	__ZNKSt3__18ios_base5flagsB8ne200100Ev ; -- Begin function _ZNKSt3__18ios_base5flagsB8ne200100Ev
	.globl	__ZNKSt3__18ios_base5flagsB8ne200100Ev
	.weak_definition	__ZNKSt3__18ios_base5flagsB8ne200100Ev
	.p2align	2
__ZNKSt3__18ios_base5flagsB8ne200100Ev: ; @_ZNKSt3__18ios_base5flagsB8ne200100Ev
	.cfi_startproc
; %bb.0:
	sub	sp, sp, #16
	.cfi_def_cfa_offset 16
	str	x0, [sp, #8]
	ldr	x8, [sp, #8]
	ldr	w0, [x8, #8]
	add	sp, sp, #16
	ret
	.cfi_endproc
                                        ; -- End function
	.private_extern	__ZNKSt3__19basic_iosIcNS_11char_traitsIcEEE4fillB8ne200100Ev ; -- Begin function _ZNKSt3__19basic_iosIcNS_11char_traitsIcEEE4fillB8ne200100Ev
	.globl	__ZNKSt3__19basic_iosIcNS_11char_traitsIcEEE4fillB8ne200100Ev
	.weak_definition	__ZNKSt3__19basic_iosIcNS_11char_traitsIcEEE4fillB8ne200100Ev
	.p2align	2
__ZNKSt3__19basic_iosIcNS_11char_traitsIcEEE4fillB8ne200100Ev: ; @_ZNKSt3__19basic_iosIcNS_11char_traitsIcEEE4fillB8ne200100Ev
	.cfi_startproc
; %bb.0:
	sub	sp, sp, #32
	stp	x29, x30, [sp, #16]             ; 16-byte Folded Spill
	add	x29, sp, #16
	.cfi_def_cfa w29, 16
	.cfi_offset w30, -8
	.cfi_offset w29, -16
	str	x0, [sp, #8]
	ldr	x8, [sp, #8]
	str	x8, [sp]                        ; 8-byte Folded Spill
	add	x0, x8, #144
	bl	__ZNKSt3__118_SentinelValueFillINS_11char_traitsIcEEE8__is_setB8ne200100Ev
	tbnz	w0, #0, LBB165_2
	b	LBB165_1
LBB165_1:
	ldr	x0, [sp]                        ; 8-byte Folded Reload
	mov	w1, #32                         ; =0x20
	bl	__ZNKSt3__19basic_iosIcNS_11char_traitsIcEEE5widenB8ne200100Ec
	ldr	x8, [sp]                        ; 8-byte Folded Reload
	mov	x1, x0
	add	x0, x8, #144
	bl	__ZNSt3__118_SentinelValueFillINS_11char_traitsIcEEEaSB8ne200100Ei
	b	LBB165_2
LBB165_2:
	ldr	x8, [sp]                        ; 8-byte Folded Reload
	add	x0, x8, #144
	bl	__ZNKSt3__118_SentinelValueFillINS_11char_traitsIcEEE5__getB8ne200100Ev
	sxtb	w0, w0
	ldp	x29, x30, [sp, #16]             ; 16-byte Folded Reload
	add	sp, sp, #32
	ret
	.cfi_endproc
                                        ; -- End function
	.private_extern	__ZNKSt3__119ostreambuf_iteratorIcNS_11char_traitsIcEEE6failedB8ne200100Ev ; -- Begin function _ZNKSt3__119ostreambuf_iteratorIcNS_11char_traitsIcEEE6failedB8ne200100Ev
	.globl	__ZNKSt3__119ostreambuf_iteratorIcNS_11char_traitsIcEEE6failedB8ne200100Ev
	.weak_definition	__ZNKSt3__119ostreambuf_iteratorIcNS_11char_traitsIcEEE6failedB8ne200100Ev
	.p2align	2
__ZNKSt3__119ostreambuf_iteratorIcNS_11char_traitsIcEEE6failedB8ne200100Ev: ; @_ZNKSt3__119ostreambuf_iteratorIcNS_11char_traitsIcEEE6failedB8ne200100Ev
	.cfi_startproc
; %bb.0:
	sub	sp, sp, #16
	.cfi_def_cfa_offset 16
	str	x0, [sp, #8]
	ldr	x8, [sp, #8]
	ldr	x8, [x8]
	subs	x8, x8, #0
	cset	w0, eq
	add	sp, sp, #16
	ret
	.cfi_endproc
                                        ; -- End function
	.private_extern	__ZNSt3__19basic_iosIcNS_11char_traitsIcEEE8setstateB8ne200100Ej ; -- Begin function _ZNSt3__19basic_iosIcNS_11char_traitsIcEEE8setstateB8ne200100Ej
	.globl	__ZNSt3__19basic_iosIcNS_11char_traitsIcEEE8setstateB8ne200100Ej
	.weak_definition	__ZNSt3__19basic_iosIcNS_11char_traitsIcEEE8setstateB8ne200100Ej
	.p2align	2
__ZNSt3__19basic_iosIcNS_11char_traitsIcEEE8setstateB8ne200100Ej: ; @_ZNSt3__19basic_iosIcNS_11char_traitsIcEEE8setstateB8ne200100Ej
	.cfi_startproc
; %bb.0:
	sub	sp, sp, #32
	stp	x29, x30, [sp, #16]             ; 16-byte Folded Spill
	add	x29, sp, #16
	.cfi_def_cfa w29, 16
	.cfi_offset w30, -8
	.cfi_offset w29, -16
	str	x0, [sp, #8]
	str	w1, [sp, #4]
	ldr	x0, [sp, #8]
	ldr	w1, [sp, #4]
	bl	__ZNSt3__18ios_base8setstateB8ne200100Ej
	ldp	x29, x30, [sp, #16]             ; 16-byte Folded Reload
	add	sp, sp, #32
	ret
	.cfi_endproc
                                        ; -- End function
	.private_extern	__ZNKSt3__18ios_base5widthB8ne200100Ev ; -- Begin function _ZNKSt3__18ios_base5widthB8ne200100Ev
	.globl	__ZNKSt3__18ios_base5widthB8ne200100Ev
	.weak_definition	__ZNKSt3__18ios_base5widthB8ne200100Ev
	.p2align	2
__ZNKSt3__18ios_base5widthB8ne200100Ev: ; @_ZNKSt3__18ios_base5widthB8ne200100Ev
	.cfi_startproc
; %bb.0:
	sub	sp, sp, #16
	.cfi_def_cfa_offset 16
	str	x0, [sp, #8]
	ldr	x8, [sp, #8]
	ldr	x0, [x8, #24]
	add	sp, sp, #16
	ret
	.cfi_endproc
                                        ; -- End function
	.private_extern	__ZNSt3__115basic_streambufIcNS_11char_traitsIcEEE5sputnB8ne200100EPKcl ; -- Begin function _ZNSt3__115basic_streambufIcNS_11char_traitsIcEEE5sputnB8ne200100EPKcl
	.globl	__ZNSt3__115basic_streambufIcNS_11char_traitsIcEEE5sputnB8ne200100EPKcl
	.weak_definition	__ZNSt3__115basic_streambufIcNS_11char_traitsIcEEE5sputnB8ne200100EPKcl
	.p2align	2
__ZNSt3__115basic_streambufIcNS_11char_traitsIcEEE5sputnB8ne200100EPKcl: ; @_ZNSt3__115basic_streambufIcNS_11char_traitsIcEEE5sputnB8ne200100EPKcl
	.cfi_startproc
; %bb.0:
	sub	sp, sp, #48
	stp	x29, x30, [sp, #32]             ; 16-byte Folded Spill
	add	x29, sp, #32
	.cfi_def_cfa w29, 16
	.cfi_offset w30, -8
	.cfi_offset w29, -16
	stur	x0, [x29, #-8]
	str	x1, [sp, #16]
	str	x2, [sp, #8]
	ldur	x0, [x29, #-8]
	ldr	x1, [sp, #16]
	ldr	x2, [sp, #8]
	ldr	x8, [x0]
	ldr	x8, [x8, #96]
	blr	x8
	ldp	x29, x30, [sp, #32]             ; 16-byte Folded Reload
	add	sp, sp, #48
	ret
	.cfi_endproc
                                        ; -- End function
	.private_extern	__ZNSt3__112basic_stringIcNS_11char_traitsIcEENS_9allocatorIcEEEC1B8ne200100Emc ; -- Begin function _ZNSt3__112basic_stringIcNS_11char_traitsIcEENS_9allocatorIcEEEC1B8ne200100Emc
	.globl	__ZNSt3__112basic_stringIcNS_11char_traitsIcEENS_9allocatorIcEEEC1B8ne200100Emc
	.weak_def_can_be_hidden	__ZNSt3__112basic_stringIcNS_11char_traitsIcEENS_9allocatorIcEEEC1B8ne200100Emc
	.p2align	2
__ZNSt3__112basic_stringIcNS_11char_traitsIcEENS_9allocatorIcEEEC1B8ne200100Emc: ; @_ZNSt3__112basic_stringIcNS_11char_traitsIcEENS_9allocatorIcEEEC1B8ne200100Emc
	.cfi_startproc
; %bb.0:
	sub	sp, sp, #48
	stp	x29, x30, [sp, #32]             ; 16-byte Folded Spill
	add	x29, sp, #32
	.cfi_def_cfa w29, 16
	.cfi_offset w30, -8
	.cfi_offset w29, -16
	stur	x0, [x29, #-8]
	str	x1, [sp, #16]
	strb	w2, [sp, #15]
	ldur	x0, [x29, #-8]
	str	x0, [sp]                        ; 8-byte Folded Spill
	ldr	x1, [sp, #16]
	ldrsb	w2, [sp, #15]
	bl	__ZNSt3__112basic_stringIcNS_11char_traitsIcEENS_9allocatorIcEEEC2B8ne200100Emc
	ldr	x0, [sp]                        ; 8-byte Folded Reload
	ldp	x29, x30, [sp, #32]             ; 16-byte Folded Reload
	add	sp, sp, #48
	ret
	.cfi_endproc
                                        ; -- End function
	.private_extern	__ZNSt3__112basic_stringIcNS_11char_traitsIcEENS_9allocatorIcEEE4dataB8ne200100Ev ; -- Begin function _ZNSt3__112basic_stringIcNS_11char_traitsIcEENS_9allocatorIcEEE4dataB8ne200100Ev
	.globl	__ZNSt3__112basic_stringIcNS_11char_traitsIcEENS_9allocatorIcEEE4dataB8ne200100Ev
	.weak_definition	__ZNSt3__112basic_stringIcNS_11char_traitsIcEENS_9allocatorIcEEE4dataB8ne200100Ev
	.p2align	2
__ZNSt3__112basic_stringIcNS_11char_traitsIcEENS_9allocatorIcEEE4dataB8ne200100Ev: ; @_ZNSt3__112basic_stringIcNS_11char_traitsIcEENS_9allocatorIcEEE4dataB8ne200100Ev
	.cfi_startproc
; %bb.0:
	sub	sp, sp, #32
	stp	x29, x30, [sp, #16]             ; 16-byte Folded Spill
	add	x29, sp, #16
	.cfi_def_cfa w29, 16
	.cfi_offset w30, -8
	.cfi_offset w29, -16
	str	x0, [sp, #8]
	ldr	x0, [sp, #8]
	bl	__ZNSt3__112basic_stringIcNS_11char_traitsIcEENS_9allocatorIcEEE13__get_pointerB8ne200100Ev
	bl	__ZNSt3__112__to_addressB8ne200100IcEEPT_S2_
	ldp	x29, x30, [sp, #16]             ; 16-byte Folded Reload
	add	sp, sp, #32
	ret
	.cfi_endproc
                                        ; -- End function
	.private_extern	__ZNSt3__18ios_base5widthB8ne200100El ; -- Begin function _ZNSt3__18ios_base5widthB8ne200100El
	.globl	__ZNSt3__18ios_base5widthB8ne200100El
	.weak_definition	__ZNSt3__18ios_base5widthB8ne200100El
	.p2align	2
__ZNSt3__18ios_base5widthB8ne200100El:  ; @_ZNSt3__18ios_base5widthB8ne200100El
	.cfi_startproc
; %bb.0:
	sub	sp, sp, #32
	.cfi_def_cfa_offset 32
	str	x0, [sp, #24]
	str	x1, [sp, #16]
	ldr	x9, [sp, #24]
	ldr	x8, [x9, #24]
	str	x8, [sp, #8]
	ldr	x8, [sp, #16]
	str	x8, [x9, #24]
	ldr	x0, [sp, #8]
	add	sp, sp, #32
	ret
	.cfi_endproc
                                        ; -- End function
	.private_extern	__ZNSt3__112basic_stringIcNS_11char_traitsIcEENS_9allocatorIcEEEC2B8ne200100Emc ; -- Begin function _ZNSt3__112basic_stringIcNS_11char_traitsIcEENS_9allocatorIcEEEC2B8ne200100Emc
	.globl	__ZNSt3__112basic_stringIcNS_11char_traitsIcEENS_9allocatorIcEEEC2B8ne200100Emc
	.weak_def_can_be_hidden	__ZNSt3__112basic_stringIcNS_11char_traitsIcEENS_9allocatorIcEEEC2B8ne200100Emc
	.p2align	2
__ZNSt3__112basic_stringIcNS_11char_traitsIcEENS_9allocatorIcEEEC2B8ne200100Emc: ; @_ZNSt3__112basic_stringIcNS_11char_traitsIcEENS_9allocatorIcEEEC2B8ne200100Emc
	.cfi_startproc
; %bb.0:
	sub	sp, sp, #48
	stp	x29, x30, [sp, #32]             ; 16-byte Folded Spill
	add	x29, sp, #32
	.cfi_def_cfa w29, 16
	.cfi_offset w30, -8
	.cfi_offset w29, -16
	stur	x0, [x29, #-8]
	str	x1, [sp, #16]
	strb	w2, [sp, #15]
	ldur	x0, [x29, #-8]
	str	x0, [sp]                        ; 8-byte Folded Spill
	bl	__ZNSt3__19allocatorIcEC1B8ne200100Ev
	ldr	x0, [sp]                        ; 8-byte Folded Reload
	ldr	x1, [sp, #16]
	ldrsb	w2, [sp, #15]
	bl	__ZNSt3__112basic_stringIcNS_11char_traitsIcEENS_9allocatorIcEEE6__initEmc
	ldr	x0, [sp]                        ; 8-byte Folded Reload
	ldp	x29, x30, [sp, #32]             ; 16-byte Folded Reload
	add	sp, sp, #48
	ret
	.cfi_endproc
                                        ; -- End function
	.private_extern	__ZNSt3__19allocatorIcEC1B8ne200100Ev ; -- Begin function _ZNSt3__19allocatorIcEC1B8ne200100Ev
	.globl	__ZNSt3__19allocatorIcEC1B8ne200100Ev
